     VMA      LMA     Size Align Out     In      Symbol
       0        0        0     1 __basic_zp_start = 0x0002
       0        0        0     1 __basic_zp_end = 0x0090
       0        0        0     1 __rc0 = 0x0002
       0        0        0     1 __rc1 = __rc0 + 1
       0        0        0     1 PROVIDE ( __rc2 = __rc1 + 1 )
       0        0        0     1 __rc3 = __rc2 + 1
       0        0        0     1 PROVIDE ( __rc4 = __rc3 + 1 )
       0        0        0     1 __rc5 = __rc4 + 1
       0        0        0     1 PROVIDE ( __rc6 = __rc5 + 1 )
       0        0        0     1 __rc7 = __rc6 + 1
       0        0        0     1 PROVIDE ( __rc8 = __rc7 + 1 )
       0        0        0     1 __rc9 = __rc8 + 1
       0        0        0     1 PROVIDE ( __rc10 = __rc9 + 1 )
       0        0        0     1 __rc11 = __rc10 + 1
       0        0        0     1 PROVIDE ( __rc12 = __rc11 + 1 )
       0        0        0     1 __rc13 = __rc12 + 1
       0        0        0     1 PROVIDE ( __rc14 = __rc13 + 1 )
       0        0        0     1 __rc15 = __rc14 + 1
       0        0        0     1 PROVIDE ( __rc16 = __rc15 + 1 )
       0        0        0     1 __rc17 = __rc16 + 1
       0        0        0     1 PROVIDE ( __rc18 = __rc17 + 1 )
       0        0        0     1 __rc19 = __rc18 + 1
       0        0        0     1 PROVIDE ( __rc20 = __rc19 + 1 )
       0        0        0     1 __rc21 = __rc20 + 1
       0        0        0     1 PROVIDE ( __rc22 = __rc21 + 1 )
       0        0        0     1 __rc23 = __rc22 + 1
       0        0        0     1 PROVIDE ( __rc24 = __rc23 + 1 )
       0        0        0     1 __rc25 = __rc24 + 1
       0        0        0     1 PROVIDE ( __rc26 = __rc25 + 1 )
       0        0        0     1 __rc27 = __rc26 + 1
       0        0        0     1 PROVIDE ( __rc28 = __rc27 + 1 )
       0        0        0     1 __rc29 = __rc28 + 1
       0        0        0     1 PROVIDE ( __rc30 = __rc29 + 1 )
       0        0        0     1 __rc31 = __rc30 + 1
       0        0        0     1 
    2001     2001       16     1 .basic_header
    2001     2001       16     1         /usr/local/bin/../mos-platform/mega65/lib/basic-header.o:(.basic_header)
    2015     2015        0     1                 next_line
    2017     2017       22     1 .debug_gdb_scripts
    2017     2017       22     1         <internal>:(.debug_gdb_scripts)
      22       22        0     1 .zp.data
      22       22        0     1         __zp_data_start = .
      22       22        0     1 __zp_data_load_start = LOADADDR ( .zp.data )
      22       22        0     1 __zp_data_size = SIZEOF ( .zp.data )
      22       22        0     1 .zp.bss
      22       22        0     1         __zp_bss_start = .
      22       22        0     1 __zp_bss_size = SIZEOF ( .zp.bss )
      22       22       15     1 .zp
      22       22       15     1         lto.tmp:(.zp.noinit..Lzp_stack)
    203a     203a     f233     2 .text
    203a     203a        0     1         _init = .
    203a     203a        0     1         _start = .
    203a     203a        8     1         /usr/local/bin/../mos-platform/commodore/lib/libcrt0.a(init-stack.S.obj):(.init.10)
    203a     203a        0     1                 __do_init_stack
    2042     2042        4     1         /usr/local/bin/../mos-platform/commodore/lib/libcrt0.a(_exit.S.obj):(.init.10)
    2046     2046        e     1         unmap-basic.o:(.init.010)
    2054     2054        3     1         /usr/local/bin/../mos-platform/commodore/lib/libcrt0.a(zero-bss.c.obj):(.init.20)
    2054     2054        0     1                 __do_zero_bss
    2057     2057        3     1         /usr/local/bin/../mos-platform/common/lib/crt0.o:(.call_main)
    205a     205a        3     1         /usr/local/bin/../mos-platform/commodore/lib/libcrt0.a(exit-return.c.obj):(.after_main)
    205a     205a        0     1                 __after_main
    205d     205d        0     1         _fini = .
    205d     205d        a     1         unmap-basic.o:(.fini.990)
    2067     2067        1     1         /usr/local/bin/../mos-platform/common/lib/crt0.o:(.fini_rts)
    2068     2068      2af     2         lto.tmp:(.text._ZN12_GLOBAL__N_19blocklist11split_blockEPNS_5blockEt)
    2068     2068      2af     1                 (anonymous namespace)::blocklist::split_block((anonymous namespace)::block*, unsigned short)
    2317     2317       31     1         /workspaces/mos-hardware/target/mos-mega65-none/release/examples/11_parse-164c6f76f6689c07.11_parse.c4d2cdbc-cgu.5.rcgu.o:(.text._ZN4core3ptr42drop_in_place$LT$alloc..string..String$GT$17h3dd55a4c083e67f5E)
    2317     2317       31     1                 core::ptr::drop_in_place$LT$alloc..string..String$GT$::h3dd55a4c083e67f5
    2348     2348      487     1         /workspaces/mos-hardware/target/mos-mega65-none/release/examples/11_parse-164c6f76f6689c07.11_parse.c4d2cdbc-cgu.5.rcgu.o:(.text._ZN4core3str21_$LT$impl$u20$str$GT$4find17h4811026a7a7cd8e3E)
    2348     2348      487     1                 core::str::_$LT$impl$u20$str$GT$::find::h4811026a7a7cd8e3
    27cf     27cf      2d9     1         /workspaces/mos-hardware/target/mos-mega65-none/release/examples/11_parse-164c6f76f6689c07.11_parse.c4d2cdbc-cgu.5.rcgu.o:(.text._ZN58_$LT$alloc..string..String$u20$as$u20$core..fmt..Write$GT$10write_char17h1dad1c68542e2ee4E)
    27cf     27cf      2d9     1                 _$LT$alloc..string..String$u20$as$u20$core..fmt..Write$GT$::write_char::h1dad1c68542e2ee4
    2aa8     2aa8        6     1         /workspaces/mos-hardware/target/mos-mega65-none/release/examples/11_parse-164c6f76f6689c07.11_parse.c4d2cdbc-cgu.5.rcgu.o:(.text._ZN58_$LT$alloc..string..String$u20$as$u20$core..fmt..Write$GT$9write_str17hab5ab2d0de695883E)
    2aa8     2aa8        6     1                 _$LT$alloc..string..String$u20$as$u20$core..fmt..Write$GT$::write_str::hab5ab2d0de695883
    2aae     2aae       30     1         /workspaces/mos-hardware/target/mos-mega65-none/release/examples/11_parse-164c6f76f6689c07.11_parse.c4d2cdbc-cgu.5.rcgu.o:(.text._ZN60_$LT$alloc..string..String$u20$as$u20$core..fmt..Display$GT$3fmt17ha0142a8fa34542b8E)
    2aae     2aae       30     1                 _$LT$alloc..string..String$u20$as$u20$core..fmt..Display$GT$::fmt::ha0142a8fa34542b8
    2ade     2ade      f47     1         /workspaces/mos-hardware/target/mos-mega65-none/release/examples/11_parse-164c6f76f6689c07.11_parse.c4d2cdbc-cgu.5.rcgu.o:(.text._ZN80_$LT$core..str..pattern..StrSearcher$u20$as$u20$core..str..pattern..Searcher$GT$10next_match17ha6c37b46bb2bba80E)
    2ade     2ade      f47     1                 _$LT$core..str..pattern..StrSearcher$u20$as$u20$core..str..pattern..Searcher$GT$::next_match::ha6c37b46bb2bba80
    3a25     3a25       bd     1         /workspaces/mos-hardware/target/mos-mega65-none/release/examples/11_parse-164c6f76f6689c07.11_parse.c4d2cdbc-cgu.5.rcgu.o:(.text._ZN9_11_parse8index_of17hc598171ef9d4c99dE)
    3a25     3a25       bd     1                 _11_parse::index_of::hc598171ef9d4c99d
    3ae2     3ae2     56bc     1         /workspaces/mos-hardware/target/mos-mega65-none/release/examples/11_parse-164c6f76f6689c07.11_parse.c4d2cdbc-cgu.5.rcgu.o:(.text._ZN9_11_parse11declare_var17h2eb85de71f485f2aE)
    3ae2     3ae2     56bc     1                 _11_parse::declare_var::h2eb85de71f485f2a
    919e     919e      3c0     1         /workspaces/mos-hardware/target/mos-mega65-none/release/examples/11_parse-164c6f76f6689c07.11_parse.c4d2cdbc-cgu.5.rcgu.o:(.text._ZN9_11_parse27generate_varname_from_index17h95eca55fff0c11b8E)
    919e     919e      3c0     1                 _11_parse::generate_varname_from_index::h95eca55fff0c11b8
    955e     955e      621     1         /workspaces/mos-hardware/target/mos-mega65-none/release/examples/11_parse-164c6f76f6689c07.11_parse.c4d2cdbc-cgu.5.rcgu.o:(.text._ZN9_11_parse11my_contains17h9d4f09dff540f35dE)
    955e     955e      621     1                 _11_parse::my_contains::h9d4f09dff540f35d
    9b7f     9b7f      236     1         /workspaces/mos-hardware/target/mos-mega65-none/release/examples/11_parse-164c6f76f6689c07.11_parse.c4d2cdbc-cgu.5.rcgu.o:(.text._ZN9_11_parse9trim_left17h6d4f19daf73411e8E)
    9b7f     9b7f      236     1                 _11_parse::trim_left::h6d4f19daf73411e8
    9db5     9db5      1db     1         /workspaces/mos-hardware/target/mos-mega65-none/release/examples/11_parse-164c6f76f6689c07.11_parse.c4d2cdbc-cgu.5.rcgu.o:(.text._ZN9_11_parse10trim_right17h63414b91a7b6b3adE)
    9db5     9db5      1db     1                 _11_parse::trim_right::h63414b91a7b6b3ad
    9f90     9f90      1fa     1         /workspaces/mos-hardware/target/mos-mega65-none/release/examples/11_parse-164c6f76f6689c07.11_parse.c4d2cdbc-cgu.5.rcgu.o:(.text._ZN9_11_parse8trim_all17hb27c60cad797e1d2E)
    9f90     9f90      1fa     1                 _11_parse::trim_all::hb27c60cad797e1d2
    a18a     a18a     2324     1         /workspaces/mos-hardware/target/mos-mega65-none/release/examples/11_parse-164c6f76f6689c07.11_parse.c4d2cdbc-cgu.5.rcgu.o:(.text.main)
    a18a     a18a     2324     1                 main
    c4ae     c4ae       51     1         /workspaces/mos-hardware/target/mos-mega65-none/release/examples/11_parse-164c6f76f6689c07.11_parse.c4d2cdbc-cgu.5.rcgu.o:(.text._ZN4ufmt18Formatter$LT$W$GT$9write_str17h3b888afbb84de56dE)
    c4ae     c4ae       51     1                 ufmt::Formatter$LT$W$GT$::write_str::h3b888afbb84de56d
    c4ff     c4ff       1f     1         /workspaces/mos-hardware/target/mos-mega65-none/release/examples/11_parse-164c6f76f6689c07.11_parse.c4d2cdbc-cgu.5.rcgu.o:(.text._ZN49_$LT$W$u20$as$u20$ufmt..UnstableDoAsFormatter$GT$15do_as_formatter17h02749cbab258710fE)
    c4ff     c4ff       1f     1                 _$LT$W$u20$as$u20$ufmt..UnstableDoAsFormatter$GT$::do_as_formatter::h02749cbab258710f
    c51e     c51e      219     1         /workspaces/mos-hardware/target/mos-mega65-none/release/examples/11_parse-164c6f76f6689c07.11_parse.c4d2cdbc-cgu.5.rcgu.o:(.text._ZN5alloc7raw_vec19RawVec$LT$T$C$A$GT$16reserve_for_push17hae9e263c2524e52dE)
    c51e     c51e      219     1                 alloc::raw_vec::RawVec$LT$T$C$A$GT$::reserve_for_push::hae9e263c2524e52d
    c737     c737      243     1         /workspaces/mos-hardware/target/mos-mega65-none/release/examples/11_parse-164c6f76f6689c07.11_parse.c4d2cdbc-cgu.5.rcgu.o:(.text._ZN5alloc7raw_vec19RawVec$LT$T$C$A$GT$16reserve_for_push17hb995021323dde7f7E)
    c737     c737      243     1                 alloc::raw_vec::RawVec$LT$T$C$A$GT$::reserve_for_push::hb995021323dde7f7
    c97a     c97a       34     1         /workspaces/mos-hardware/target/mos-mega65-none/release/examples/11_parse-164c6f76f6689c07.11_parse.c4d2cdbc-cgu.5.rcgu.o:(.text._ZN52_$LT$$RF$mut$u20$T$u20$as$u20$core..fmt..Display$GT$3fmt17hbf1ddb73356ce791E)
    c97a     c97a       34     1                 _$LT$$RF$mut$u20$T$u20$as$u20$core..fmt..Display$GT$::fmt::hbf1ddb73356ce791
    c9ae     c9ae      152     1         /workspaces/mos-hardware/target/mos-mega65-none/release/examples/11_parse-164c6f76f6689c07.11_parse.c4d2cdbc-cgu.5.rcgu.o:(.text._ZN4ufmt5impls3uxx46_$LT$impl$u20$ufmt..uDebug$u20$for$u20$u16$GT$3fmt17h95fb23d08b286e78E)
    c9ae     c9ae      152     1                 ufmt::impls::uxx::_$LT$impl$u20$ufmt..uDebug$u20$for$u20$u16$GT$::fmt::h95fb23d08b286e78
    cb00     cb00        3     1         /workspaces/mos-hardware/target/mos-mega65-none/release/examples/11_parse-164c6f76f6689c07.11_parse.c4d2cdbc-cgu.5.rcgu.o:(.text.__rust_alloc)
    cb00     cb00        3     1                 __rust_alloc
    cb03     cb03        3     1         /workspaces/mos-hardware/target/mos-mega65-none/release/examples/11_parse-164c6f76f6689c07.11_parse.c4d2cdbc-cgu.5.rcgu.o:(.text.__rust_dealloc)
    cb03     cb03        3     1                 __rust_dealloc
    cb06     cb06        3     1         /workspaces/mos-hardware/target/mos-mega65-none/release/examples/11_parse-164c6f76f6689c07.11_parse.c4d2cdbc-cgu.5.rcgu.o:(.text.__rust_realloc)
    cb06     cb06        3     1                 __rust_realloc
    cb09     cb09        3     1         /workspaces/mos-hardware/target/mos-mega65-none/release/examples/11_parse-164c6f76f6689c07.11_parse.c4d2cdbc-cgu.5.rcgu.o:(.text.__rust_alloc_error_handler)
    cb09     cb09        3     1                 __rust_alloc_error_handler
    cb0c     cb0c       4d     1         /workspaces/mos-hardware/target/mos-mega65-none/release/examples/11_parse-164c6f76f6689c07.11_parse.c4d2cdbc-cgu.5.rcgu.o:(.text._ZN5alloc7raw_vec19RawVec$LT$T$C$A$GT$11allocate_in17h0f2fc9a244b8e1a0E)
    cb0c     cb0c       4d     1                 alloc::raw_vec::RawVec$LT$T$C$A$GT$::allocate_in::h0f2fc9a244b8e1a0
    cb59     cb59       19     1         /workspaces/mos-hardware/target/mos-mega65-none/release/examples/11_parse-164c6f76f6689c07.11_parse.c4d2cdbc-cgu.5.rcgu.o:(.text.unlikely._ZN5alloc7raw_vec19RawVec$LT$T$C$A$GT$7reserve21do_reserve_and_handle17h173b28ab1f2de2aeE)
    cb59     cb59       19     1                 alloc::raw_vec::RawVec$LT$T$C$A$GT$::reserve::do_reserve_and_handle::h173b28ab1f2de2ae
    cb72     cb72      20c     1         /workspaces/mos-hardware/target/mos-mega65-none/release/examples/11_parse-164c6f76f6689c07.11_parse.c4d2cdbc-cgu.5.rcgu.o:(.text._ZN5alloc7raw_vec19RawVec$LT$T$C$A$GT$14grow_amortized17h9f7438c222534d92E)
    cb72     cb72      20c     1                 alloc::raw_vec::RawVec$LT$T$C$A$GT$::grow_amortized::h9f7438c222534d92
    cd7e     cd7e      191     1         /workspaces/mos-hardware/target/mos-mega65-none/release/examples/11_parse-164c6f76f6689c07.11_parse.c4d2cdbc-cgu.5.rcgu.o:(.text._ZN5alloc7raw_vec11finish_grow17hf8cc7deef15398b8E)
    cd7e     cd7e      191     1                 alloc::raw_vec::finish_grow::hf8cc7deef15398b8
    cf0f     cf0f       20     1         /workspaces/mos-hardware/target/mos-mega65-none/release/examples/11_parse-164c6f76f6689c07.11_parse.c4d2cdbc-cgu.5.rcgu.o:(.text._ZN5alloc7raw_vec19RawVec$LT$T$C$A$GT$16reserve_for_push17h622e1a3c41065ed8E)
    cf0f     cf0f       20     1                 alloc::raw_vec::RawVec$LT$T$C$A$GT$::reserve_for_push::h622e1a3c41065ed8
    cf2f     cf2f       78     1         /workspaces/mos-hardware/target/mos-mega65-none/release/examples/11_parse-164c6f76f6689c07.11_parse.c4d2cdbc-cgu.5.rcgu.o:(.text._ZN4core3fmt5Write9write_fmt17h36f53e639ec8e262E)
    cf2f     cf2f       78     1                 core::fmt::Write::write_fmt::h36f53e639ec8e262
    cfa7     cfa7        1     1         /workspaces/mos-hardware/target/mos-mega65-none/release/examples/11_parse-164c6f76f6689c07.11_parse.c4d2cdbc-cgu.5.rcgu.o:(.text._ZN4core3ptr28drop_in_place$LT$$RF$str$GT$17h26d9abcfbb69417dE)
    cfa7     cfa7        1     1                 core::ptr::drop_in_place$LT$$RF$str$GT$::h26d9abcfbb69417d
    cfa8     cfa8       1b     1         /workspaces/mos-hardware/target/mos-mega65-none/release/examples/11_parse-164c6f76f6689c07.11_parse.c4d2cdbc-cgu.5.rcgu.o:(.text._ZN50_$LT$$RF$mut$u20$W$u20$as$u20$core..fmt..Write$GT$9write_str17hf067944a268685c2E)
    cfa8     cfa8       1b     1                 _$LT$$RF$mut$u20$W$u20$as$u20$core..fmt..Write$GT$::write_str::hf067944a268685c2
    cfc3     cfc3      319     1         /workspaces/mos-hardware/target/mos-mega65-none/release/examples/11_parse-164c6f76f6689c07.11_parse.c4d2cdbc-cgu.5.rcgu.o:(.text._ZN50_$LT$$RF$mut$u20$W$u20$as$u20$core..fmt..Write$GT$10write_char17h04a5084dd58dea58E)
    cfc3     cfc3      319     1                 _$LT$$RF$mut$u20$W$u20$as$u20$core..fmt..Write$GT$::write_char::h04a5084dd58dea58
    d2dc     d2dc       78     1         /workspaces/mos-hardware/target/mos-mega65-none/release/examples/11_parse-164c6f76f6689c07.11_parse.c4d2cdbc-cgu.5.rcgu.o:(.text._ZN50_$LT$$RF$mut$u20$W$u20$as$u20$core..fmt..Write$GT$9write_fmt17h6c57f977c2ed4205E)
    d2dc     d2dc       78     1                 _$LT$$RF$mut$u20$W$u20$as$u20$core..fmt..Write$GT$::write_fmt::h6c57f977c2ed4205
    d354     d354        3     1         /workspaces/mos-hardware/target/mos-mega65-none/release/examples/11_parse-164c6f76f6689c07.11_parse.c4d2cdbc-cgu.5.rcgu.o:(.text.unlikely._ZN5alloc5alloc18handle_alloc_error17h870a6c6881e4c557E)
    d354     d354        3     1                 alloc::alloc::handle_alloc_error::h870a6c6881e4c557
    d357     d357        3     1         /workspaces/mos-hardware/target/mos-mega65-none/release/examples/11_parse-164c6f76f6689c07.11_parse.c4d2cdbc-cgu.5.rcgu.o:(.text._ZN5alloc5alloc18handle_alloc_error8rt_error17h8b896583cfec8a6cE)
    d357     d357        3     1                 alloc::alloc::handle_alloc_error::rt_error::h8b896583cfec8a6c
    d35a     d35a      223     1         /workspaces/mos-hardware/target/mos-mega65-none/release/examples/11_parse-164c6f76f6689c07.11_parse.c4d2cdbc-cgu.5.rcgu.o:(.text._ZN5alloc3fmt6format12format_inner17h62bffe5a9ca2b1ceE)
    d35a     d35a      223     1                 alloc::fmt::format::format_inner::h62bffe5a9ca2b1ce
    d57d     d57d        3     1         /workspaces/mos-hardware/target/mos-mega65-none/release/examples/11_parse-164c6f76f6689c07.11_parse.c4d2cdbc-cgu.5.rcgu.o:(.text.__rdl_oom)
    d57d     d57d        3     1                 __rdl_oom
    d580     d580        3     1         /workspaces/mos-hardware/target/mos-mega65-none/release/examples/11_parse-164c6f76f6689c07.11_parse.c4d2cdbc-cgu.5.rcgu.o:(.text.unlikely._ZN5alloc3vec16Vec$LT$T$C$A$GT$11swap_remove13assert_failed17h3b65da7648bf05d0E)
    d580     d580        3     1                 alloc::vec::Vec$LT$T$C$A$GT$::swap_remove::assert_failed::h3b65da7648bf05d0
    d583     d583      143     1         /workspaces/mos-hardware/target/mos-mega65-none/release/examples/11_parse-164c6f76f6689c07.11_parse.c4d2cdbc-cgu.5.rcgu.o:(.text._ZN5alloc3vec16Vec$LT$T$C$A$GT$17extend_from_slice17h271a1799fbee21c6E)
    d583     d583      143     1                 alloc::vec::Vec$LT$T$C$A$GT$::extend_from_slice::h271a1799fbee21c6
    d6c6     d6c6      5a4     1         /workspaces/mos-hardware/target/mos-mega65-none/release/examples/11_parse-164c6f76f6689c07.11_parse.c4d2cdbc-cgu.5.rcgu.o:(.text._ZN4core3num14from_str_radix17h4db0428c9fcd9f7eE)
    d6c6     d6c6      5a4     1                 core::num::from_str_radix::h4db0428c9fcd9f7e
    dc6a     dc6a      91b     1         /workspaces/mos-hardware/target/mos-mega65-none/release/examples/11_parse-164c6f76f6689c07.11_parse.c4d2cdbc-cgu.5.rcgu.o:(.text._ZN4core3str7pattern11StrSearcher3new17hba123fb96559aac7E)
    dc6a     dc6a      91b     1                 core::str::pattern::StrSearcher::new::hba123fb96559aac7
    e585     e585      256     1         /workspaces/mos-hardware/target/mos-mega65-none/release/examples/11_parse-164c6f76f6689c07.11_parse.c4d2cdbc-cgu.5.rcgu.o:(.text._ZN4core3str7pattern14TwoWaySearcher22reverse_maximal_suffix17h7b4b8c9066274cd0E)
    e585     e585      256     1                 core::str::pattern::TwoWaySearcher::reverse_maximal_suffix::h7b4b8c9066274cd0
    e7db     e7db      336     1         /workspaces/mos-hardware/target/mos-mega65-none/release/examples/11_parse-164c6f76f6689c07.11_parse.c4d2cdbc-cgu.5.rcgu.o:(.text._ZN4core3str5count14do_count_chars17hdb8f267b65abee6fE)
    e7db     e7db      336     1                 core::str::count::do_count_chars::hdb8f267b65abee6f
    eb11     eb11        a     1         /workspaces/mos-hardware/target/mos-mega65-none/release/examples/11_parse-164c6f76f6689c07.11_parse.c4d2cdbc-cgu.5.rcgu.o:(.text._ZN4core3ops8function6FnOnce9call_once17hdaf250ebf5ac2edbE)
    eb11     eb11        a     1                 core::ops::function::FnOnce::call_once::hdaf250ebf5ac2edb
    eb1b     eb1b      797     1         /workspaces/mos-hardware/target/mos-mega65-none/release/examples/11_parse-164c6f76f6689c07.11_parse.c4d2cdbc-cgu.5.rcgu.o:(.text._ZN4core3fmt5write17h66cb4d1c32d0554dE)
    eb1b     eb1b      797     1                 core::fmt::write::h66cb4d1c32d0554d
    f2b2     f2b2       9a     1         /workspaces/mos-hardware/target/mos-mega65-none/release/examples/11_parse-164c6f76f6689c07.11_parse.c4d2cdbc-cgu.5.rcgu.o:(.text._ZN4core3fmt8getcount17h4619f5b7c42840e9E)
    f2b2     f2b2       9a     1                 core::fmt::getcount::h4619f5b7c42840e9
    f34c     f34c      118     1         /workspaces/mos-hardware/target/mos-mega65-none/release/examples/11_parse-164c6f76f6689c07.11_parse.c4d2cdbc-cgu.5.rcgu.o:(.text._ZN4core3fmt9Formatter12pad_integral12write_prefix17hee6727f227b213a6E)
    f34c     f34c      118     1                 core::fmt::Formatter::pad_integral::write_prefix::hee6727f227b213a6
    f464     f464      1cc     1         /workspaces/mos-hardware/target/mos-mega65-none/release/examples/11_parse-164c6f76f6689c07.11_parse.c4d2cdbc-cgu.5.rcgu.o:(.text._ZN4core3fmt9Formatter7padding17h73eaa469a8b1d5f9E)
    f464     f464      1cc     1                 core::fmt::Formatter::padding::h73eaa469a8b1d5f9
    f630     f630      7ef     1         /workspaces/mos-hardware/target/mos-mega65-none/release/examples/11_parse-164c6f76f6689c07.11_parse.c4d2cdbc-cgu.5.rcgu.o:(.text._ZN42_$LT$str$u20$as$u20$core..fmt..Display$GT$3fmt17hf7afae6d1f403964E)
    f630     f630      7ef     1                 _$LT$str$u20$as$u20$core..fmt..Display$GT$::fmt::hf7afae6d1f403964
    fe1f     fe1f      33b     1         /workspaces/mos-hardware/target/mos-mega65-none/release/examples/11_parse-164c6f76f6689c07.11_parse.c4d2cdbc-cgu.5.rcgu.o:(.text._ZN4core5slice6memchr14memchr_aligned17h44aa2a32ea39922aE)
    fe1f     fe1f      33b     1                 core::slice::memchr::memchr_aligned::h44aa2a32ea39922a
   1015a    1015a        3     1         /workspaces/mos-hardware/target/mos-mega65-none/release/examples/11_parse-164c6f76f6689c07.11_parse.c4d2cdbc-cgu.5.rcgu.o:(.text.unlikely._ZN4core3str16slice_error_fail17h4f4c4b84852abc05E)
   1015a    1015a        3     1                 core::str::slice_error_fail::h4f4c4b84852abc05
   1015d    1015d      37d     1         /workspaces/mos-hardware/target/mos-mega65-none/release/examples/11_parse-164c6f76f6689c07.11_parse.c4d2cdbc-cgu.5.rcgu.o:(.text._ZN4core3str19slice_error_fail_rt17h4275a080689a98aeE)
   1015d    1015d      37d     1                 core::str::slice_error_fail_rt::h4275a080689a98ae
   104da    104da        3     1         /workspaces/mos-hardware/target/mos-mega65-none/release/examples/11_parse-164c6f76f6689c07.11_parse.c4d2cdbc-cgu.5.rcgu.o:(.text.__rg_alloc)
   104da    104da        3     1                 __rg_alloc
   104dd    104dd        3     1         /workspaces/mos-hardware/target/mos-mega65-none/release/examples/11_parse-164c6f76f6689c07.11_parse.c4d2cdbc-cgu.5.rcgu.o:(.text.__rg_dealloc)
   104dd    104dd        3     1                 __rg_dealloc
   104e0    104e0        3     1         /workspaces/mos-hardware/target/mos-mega65-none/release/examples/11_parse-164c6f76f6689c07.11_parse.c4d2cdbc-cgu.5.rcgu.o:(.text.__rg_realloc)
   104e0    104e0        3     1                 __rg_realloc
   104e3    104e3       e9     1         /workspaces/mos-hardware/target/mos-mega65-none/release/examples/11_parse-164c6f76f6689c07.11_parse.c4d2cdbc-cgu.5.rcgu.o:(.text._ZN12mos_hardware6mega656memory114_$LT$impl$u20$core..convert..From$LT$mos_hardware..mega65..memory..Fat28$GT$$u20$for$u20$alloc..string..String$GT$4from17h06e4dcb50cb3b733E)
   104e3    104e3       e9     1                 mos_hardware::mega65::memory::_$LT$impl$u20$core..convert..From$LT$mos_hardware..mega65..memory..Fat28$GT$$u20$for$u20$alloc..string..String$GT$::from::h06e4dcb50cb3b733
   105cc    105cc        e     1         /tmp/rustcBzJWrP/libmos_hardware-1ab2e04af915e145.rlib(conio.o):(.text.setlowercase)
   105cc    105cc        e     1                 setlowercase
   105da    105da       95     1         /tmp/rustcBzJWrP/libmos_hardware-1ab2e04af915e145.rlib(memory.o):(.text.lpeek)
   105da    105da       95     1                 lpeek
   1066f    1066f       9b     1         /tmp/rustcBzJWrP/libmos_hardware-1ab2e04af915e145.rlib(memory.o):(.text.lpoke)
   1066f    1066f       9b     1                 lpoke
   1070a    1070a       e5     1         /tmp/rustcBzJWrP/libmos_hardware-1ab2e04af915e145.rlib(memory.o):(.text.lcopy)
   1070a    1070a       e5     1                 lcopy
   107ef    107ef        5     1         /tmp/rustcBzJWrP/libmos_hardware-1ab2e04af915e145.rlib(sdcard.o):(.text.mega65_fast)
   107ef    107ef        5     1                 mega65_fast
   107f4    107f4       13     1         /usr/local/bin/../mos-platform/commodore/lib/libcrt0.a(zero-bss.c.obj):(.text)
   107f4    107f4       13     1                 __zero_bss
   10807    10807        a     1         /usr/local/bin/../mos-platform/commodore/lib/libcrt0.a(exit-return.c.obj):(.text)
   10807    10807        a     1                 __exit_return
   10811    10811        3     1         /usr/local/bin/../mos-platform/common/lib/libcrt.a(call-indir.S.obj):(.text)
   10811    10811        0     1                 __call_indir
   10814    10814       12     1         /usr/local/bin/../mos-platform/mega65/lib/libc.a(abort.c.obj):(.text)
   10814    10814       12     1                 abort
   10826    10826        9     1         /usr/local/bin/../mos-platform/commodore/lib/libcrt0.a(_exit.S.obj):(.text)
   10826    10826        0     1                 _exit
   10826    10826        0     1                 _Exit
   1082f    1082f       ba     1         lto.tmp:(.text.__udivhi3)
   1082f    1082f       ba     1                 __udivhi3
   108e9    108e9       a0     1         lto.tmp:(.text.__umodhi3)
   108e9    108e9       a0     1                 __umodhi3
   10989    10989       da     1         lto.tmp:(.text.__udivmodhi4)
   10989    10989       da     1                 __udivmodhi4
   10a63    10a63       32     1         lto.tmp:(.text.__mulhi3)
   10a63    10a63       32     1                 __mulhi3
   10a95    10a95       70     1         lto.tmp:(.text.__mulsi3)
   10a95    10a95       70     1                 __mulsi3
   10b05    10b05       13     1         lto.tmp:(.text.__ashlhi3)
   10b05    10b05       13     1                 __ashlhi3
   10b18    10b18       1f     1         lto.tmp:(.text.__ashldi3)
   10b18    10b18       1f     1                 __ashldi3
   10b37    10b37        e     1         lto.tmp:(.text.putchar)
   10b37    10b37        e     1                 putchar
   10b45    10b45       37     1         lto.tmp:(.text.puts)
   10b45    10b45       37     1                 puts
   10b7c    10b7c       76     1         lto.tmp:(.text.malloc)
   10b7c    10b7c       76     1                 malloc
   10bf2    10bf2       65     1         lto.tmp:(.text._ZN12_GLOBAL__N_113get_free_listEv)
   10bf2    10bf2       65     1                 (anonymous namespace)::get_free_list()
   10c57    10c57      222     1         lto.tmp:(.text.realloc)
   10c57    10c57      222     1                 realloc
   10e79    10e79      2bf     1         lto.tmp:(.text.free)
   10e79    10e79      2bf     1                 free
   11138    11138       46     1         lto.tmp:(.text.memcmp)
   11138    11138       46     1                 memcmp
   1117e    1117e       34     1         lto.tmp:(.text.memcpy)
   1117e    1117e       34     1                 memcpy
   111b2    111b2       23     1         lto.tmp:(.text.__memset)
   111b2    111b2       23     1                 __memset
   111d5    111d5       98     1         lto.tmp:(.text.memmove)
   111d5    111d5       98     1                 memmove
   1126d    1126d        0     1         __init_array_start = .
   1126d    1126d        0     1         __init_array_end = .
   1126d    1126d        0     1         __fini_array_start = .
   1126d    1126d        0     1         __fini_array_end = .
   1126d    1126d      248     1 .rodata
   1126d    1126d        8     1         /workspaces/mos-hardware/target/mos-mega65-none/release/examples/11_parse-164c6f76f6689c07.11_parse.c4d2cdbc-cgu.5.rcgu.o:(.rodata._ZN4core3fmt9Formatter7padding17h73eaa469a8b1d5f9E)
   11275    11275        1     1         /workspaces/mos-hardware/target/mos-mega65-none/release/examples/11_parse-164c6f76f6689c07.11_parse.c4d2cdbc-cgu.5.rcgu.o:(.rodata..Lanon.82585a2cba6af83290cfbb5e2bd36c75.8)
   11276    11276        2     1         /workspaces/mos-hardware/target/mos-mega65-none/release/examples/11_parse-164c6f76f6689c07.11_parse.c4d2cdbc-cgu.5.rcgu.o:(.rodata..Lanon.82585a2cba6af83290cfbb5e2bd36c75.10)
   11278    11278       10     1         <internal>:(.rodata)
   11288    11288        1     1         /workspaces/mos-hardware/target/mos-mega65-none/release/examples/11_parse-164c6f76f6689c07.11_parse.c4d2cdbc-cgu.5.rcgu.o:(.rodata..Lanon.82585a2cba6af83290cfbb5e2bd36c75.15)
   11289    11289        1     1         /workspaces/mos-hardware/target/mos-mega65-none/release/examples/11_parse-164c6f76f6689c07.11_parse.c4d2cdbc-cgu.5.rcgu.o:(.rodata..Lanon.82585a2cba6af83290cfbb5e2bd36c75.17)
   1128a    1128a        5     1         /workspaces/mos-hardware/target/mos-mega65-none/release/examples/11_parse-164c6f76f6689c07.11_parse.c4d2cdbc-cgu.5.rcgu.o:(.rodata..Lanon.82585a2cba6af83290cfbb5e2bd36c75.18)
   1128f    1128f        5     1         /workspaces/mos-hardware/target/mos-mega65-none/release/examples/11_parse-164c6f76f6689c07.11_parse.c4d2cdbc-cgu.5.rcgu.o:(.rodata..Lanon.82585a2cba6af83290cfbb5e2bd36c75.19)
   11294    11294        6     1         /workspaces/mos-hardware/target/mos-mega65-none/release/examples/11_parse-164c6f76f6689c07.11_parse.c4d2cdbc-cgu.5.rcgu.o:(.rodata..Lanon.82585a2cba6af83290cfbb5e2bd36c75.20)
   1129a    1129a        7     1         /workspaces/mos-hardware/target/mos-mega65-none/release/examples/11_parse-164c6f76f6689c07.11_parse.c4d2cdbc-cgu.5.rcgu.o:(.rodata..Lanon.82585a2cba6af83290cfbb5e2bd36c75.21)
   112a1    112a1        2     1         /workspaces/mos-hardware/target/mos-mega65-none/release/examples/11_parse-164c6f76f6689c07.11_parse.c4d2cdbc-cgu.5.rcgu.o:(.rodata..Lanon.82585a2cba6af83290cfbb5e2bd36c75.25)
   112a3    112a3        1     1         /workspaces/mos-hardware/target/mos-mega65-none/release/examples/11_parse-164c6f76f6689c07.11_parse.c4d2cdbc-cgu.5.rcgu.o:(.rodata..Lanon.82585a2cba6af83290cfbb5e2bd36c75.27)
   112a4    112a4        1     1         /workspaces/mos-hardware/target/mos-mega65-none/release/examples/11_parse-164c6f76f6689c07.11_parse.c4d2cdbc-cgu.5.rcgu.o:(.rodata..Lanon.82585a2cba6af83290cfbb5e2bd36c75.29)
   112a5    112a5        3     1         /workspaces/mos-hardware/target/mos-mega65-none/release/examples/11_parse-164c6f76f6689c07.11_parse.c4d2cdbc-cgu.5.rcgu.o:(.rodata..Lanon.82585a2cba6af83290cfbb5e2bd36c75.33)
   112a8    112a8        1     1         /workspaces/mos-hardware/target/mos-mega65-none/release/examples/11_parse-164c6f76f6689c07.11_parse.c4d2cdbc-cgu.5.rcgu.o:(.rodata..Lanon.82585a2cba6af83290cfbb5e2bd36c75.34)
   112a9    112a9        1     1         /workspaces/mos-hardware/target/mos-mega65-none/release/examples/11_parse-164c6f76f6689c07.11_parse.c4d2cdbc-cgu.5.rcgu.o:(.rodata..Lanon.82585a2cba6af83290cfbb5e2bd36c75.37)
   112aa    112aa        2     1         /workspaces/mos-hardware/target/mos-mega65-none/release/examples/11_parse-164c6f76f6689c07.11_parse.c4d2cdbc-cgu.5.rcgu.o:(.rodata..Lanon.82585a2cba6af83290cfbb5e2bd36c75.38)
   112ac    112ac        1     1         /workspaces/mos-hardware/target/mos-mega65-none/release/examples/11_parse-164c6f76f6689c07.11_parse.c4d2cdbc-cgu.5.rcgu.o:(.rodata..Lanon.82585a2cba6af83290cfbb5e2bd36c75.40)
   112ad    112ad        1     1         /workspaces/mos-hardware/target/mos-mega65-none/release/examples/11_parse-164c6f76f6689c07.11_parse.c4d2cdbc-cgu.5.rcgu.o:(.rodata..Lanon.82585a2cba6af83290cfbb5e2bd36c75.41)
   112ae    112ae        2     1         /workspaces/mos-hardware/target/mos-mega65-none/release/examples/11_parse-164c6f76f6689c07.11_parse.c4d2cdbc-cgu.5.rcgu.o:(.rodata..Lanon.82585a2cba6af83290cfbb5e2bd36c75.44)
   112b0    112b0        1     1         /workspaces/mos-hardware/target/mos-mega65-none/release/examples/11_parse-164c6f76f6689c07.11_parse.c4d2cdbc-cgu.5.rcgu.o:(.rodata..Lanon.82585a2cba6af83290cfbb5e2bd36c75.47)
   112b1    112b1        1     1         /workspaces/mos-hardware/target/mos-mega65-none/release/examples/11_parse-164c6f76f6689c07.11_parse.c4d2cdbc-cgu.5.rcgu.o:(.rodata..Lanon.82585a2cba6af83290cfbb5e2bd36c75.48)
   112b2    112b2       20     1         <internal>:(.rodata)
   112d2    112d2        1     1         /workspaces/mos-hardware/target/mos-mega65-none/release/examples/11_parse-164c6f76f6689c07.11_parse.c4d2cdbc-cgu.5.rcgu.o:(.rodata..Lanon.82585a2cba6af83290cfbb5e2bd36c75.52)
   112d3    112d3        1     1         /workspaces/mos-hardware/target/mos-mega65-none/release/examples/11_parse-164c6f76f6689c07.11_parse.c4d2cdbc-cgu.5.rcgu.o:(.rodata..Lanon.82585a2cba6af83290cfbb5e2bd36c75.53)
   112d4    112d4        f     1         /workspaces/mos-hardware/target/mos-mega65-none/release/examples/11_parse-164c6f76f6689c07.11_parse.c4d2cdbc-cgu.5.rcgu.o:(.rodata..Lanon.82585a2cba6af83290cfbb5e2bd36c75.61)
   112e3    112e3        a     1         /workspaces/mos-hardware/target/mos-mega65-none/release/examples/11_parse-164c6f76f6689c07.11_parse.c4d2cdbc-cgu.5.rcgu.o:(.rodata..Lanon.82585a2cba6af83290cfbb5e2bd36c75.62)
   112ed    112ed        b     1         /workspaces/mos-hardware/target/mos-mega65-none/release/examples/11_parse-164c6f76f6689c07.11_parse.c4d2cdbc-cgu.5.rcgu.o:(.rodata..Lanon.82585a2cba6af83290cfbb5e2bd36c75.63)
   112f8    112f8       30     1         <internal>:(.rodata)
   11328    11328        9     1         /workspaces/mos-hardware/target/mos-mega65-none/release/examples/11_parse-164c6f76f6689c07.11_parse.c4d2cdbc-cgu.5.rcgu.o:(.rodata..Lanon.82585a2cba6af83290cfbb5e2bd36c75.65)
   11331    11331        6     1         /workspaces/mos-hardware/target/mos-mega65-none/release/examples/11_parse-164c6f76f6689c07.11_parse.c4d2cdbc-cgu.5.rcgu.o:(.rodata..Lanon.82585a2cba6af83290cfbb5e2bd36c75.66)
   11337    11337       1a     1         /workspaces/mos-hardware/target/mos-mega65-none/release/examples/11_parse-164c6f76f6689c07.11_parse.c4d2cdbc-cgu.5.rcgu.o:(.rodata..Lanon.3a363e8f832faf69849492c84e3f7a64.0)
   11351    11351        1     1         /workspaces/mos-hardware/target/mos-mega65-none/release/examples/11_parse-164c6f76f6689c07.11_parse.c4d2cdbc-cgu.5.rcgu.o:(.rodata..Lanon.3a363e8f832faf69849492c84e3f7a64.1)
   11352    11352        1     1         /workspaces/mos-hardware/target/mos-mega65-none/release/examples/11_parse-164c6f76f6689c07.11_parse.c4d2cdbc-cgu.5.rcgu.o:(.rodata..Lanon.3a363e8f832faf69849492c84e3f7a64.3)
   11353    11353        2     1         /workspaces/mos-hardware/target/mos-mega65-none/release/examples/11_parse-164c6f76f6689c07.11_parse.c4d2cdbc-cgu.5.rcgu.o:(.rodata..Lanon.3a363e8f832faf69849492c84e3f7a64.4)
   11355    11355        3     1         /workspaces/mos-hardware/target/mos-mega65-none/release/examples/11_parse-164c6f76f6689c07.11_parse.c4d2cdbc-cgu.5.rcgu.o:(.rodata..Lanon.3a363e8f832faf69849492c84e3f7a64.5)
   11358    11358        1     1         /workspaces/mos-hardware/target/mos-mega65-none/release/examples/11_parse-164c6f76f6689c07.11_parse.c4d2cdbc-cgu.5.rcgu.o:(.rodata..Lanon.3a363e8f832faf69849492c84e3f7a64.6)
   11359    11359        5     1         /workspaces/mos-hardware/target/mos-mega65-none/release/examples/11_parse-164c6f76f6689c07.11_parse.c4d2cdbc-cgu.5.rcgu.o:(.rodata..Lanon.3a363e8f832faf69849492c84e3f7a64.7)
   1135e    1135e        b     1         /workspaces/mos-hardware/target/mos-mega65-none/release/examples/11_parse-164c6f76f6689c07.11_parse.c4d2cdbc-cgu.5.rcgu.o:(.rodata..Lanon.3a363e8f832faf69849492c84e3f7a64.8)
   11369    11369        c     1         /workspaces/mos-hardware/target/mos-mega65-none/release/examples/11_parse-164c6f76f6689c07.11_parse.c4d2cdbc-cgu.5.rcgu.o:(.rodata..Lanon.3a363e8f832faf69849492c84e3f7a64.9)
   11375    11375        9     1         /workspaces/mos-hardware/target/mos-mega65-none/release/examples/11_parse-164c6f76f6689c07.11_parse.c4d2cdbc-cgu.5.rcgu.o:(.rodata..Lanon.3a363e8f832faf69849492c84e3f7a64.10)
   1137e    1137e       27     1         /workspaces/mos-hardware/target/mos-mega65-none/release/examples/11_parse-164c6f76f6689c07.11_parse.c4d2cdbc-cgu.5.rcgu.o:(.rodata..Lanon.3a363e8f832faf69849492c84e3f7a64.11)
   113a5    113a5        d     1         /workspaces/mos-hardware/target/mos-mega65-none/release/examples/11_parse-164c6f76f6689c07.11_parse.c4d2cdbc-cgu.5.rcgu.o:(.rodata..Lanon.3a363e8f832faf69849492c84e3f7a64.12)
   113b2    113b2        9     1         /workspaces/mos-hardware/target/mos-mega65-none/release/examples/11_parse-164c6f76f6689c07.11_parse.c4d2cdbc-cgu.5.rcgu.o:(.rodata..Lanon.3a363e8f832faf69849492c84e3f7a64.16)
   113bb    113bb        6     1         /workspaces/mos-hardware/target/mos-mega65-none/release/examples/11_parse-164c6f76f6689c07.11_parse.c4d2cdbc-cgu.5.rcgu.o:(.rodata..Lanon.3a363e8f832faf69849492c84e3f7a64.19)
   113c1    113c1        c     1         /workspaces/mos-hardware/target/mos-mega65-none/release/examples/11_parse-164c6f76f6689c07.11_parse.c4d2cdbc-cgu.5.rcgu.o:(.rodata..Lanon.3a363e8f832faf69849492c84e3f7a64.20)
   113cd    113cd        d     1         /workspaces/mos-hardware/target/mos-mega65-none/release/examples/11_parse-164c6f76f6689c07.11_parse.c4d2cdbc-cgu.5.rcgu.o:(.rodata..Lanon.3a363e8f832faf69849492c84e3f7a64.21)
   113da    113da        a     1         /workspaces/mos-hardware/target/mos-mega65-none/release/examples/11_parse-164c6f76f6689c07.11_parse.c4d2cdbc-cgu.5.rcgu.o:(.rodata..Lanon.3a363e8f832faf69849492c84e3f7a64.23)
   113e4    113e4       c8     1         /workspaces/mos-hardware/target/mos-mega65-none/release/examples/11_parse-164c6f76f6689c07.11_parse.c4d2cdbc-cgu.5.rcgu.o:(.rodata..Lanon.c39a9079558f26911d0c2611837eaa0c.6)
   114ac    114ac        0     1         /workspaces/mos-hardware/target/mos-mega65-none/release/examples/11_parse-164c6f76f6689c07.11_parse.c4d2cdbc-cgu.5.rcgu.o:(.rodata..Lanon.aa6863f038af611fa364a05cb646ef03.14)
   114ac    114ac        1     1         /usr/local/bin/../mos-platform/common/lib/libcrt.a(const.S.obj):(.rodata)
   114ac    114ac        0     1                 __set_v
   114ad    114ad        8     1         <internal>:(.rodata)
   114b6    114b6       6a     2 .data
   114b6    114b6        0     1         __data_start = .
   114b6    114b6        2     2         lto.tmp:(.data._ZN12_GLOBAL__N_19blocklist12m_heap_limitE)
   114b6    114b6        2     1                 (anonymous namespace)::blocklist::m_heap_limit
   114b8    114b8        c     1         /workspaces/mos-hardware/target/mos-mega65-none/release/examples/11_parse-164c6f76f6689c07.11_parse.c4d2cdbc-cgu.5.rcgu.o:(.data.rel.ro..Lanon.82585a2cba6af83290cfbb5e2bd36c75.0)
   114c4    114c4       10     1         /workspaces/mos-hardware/target/mos-mega65-none/release/examples/11_parse-164c6f76f6689c07.11_parse.c4d2cdbc-cgu.5.rcgu.o:(.data.rel.ro..Lanon.82585a2cba6af83290cfbb5e2bd36c75.39)
   114d4    114d4       10     1         /workspaces/mos-hardware/target/mos-mega65-none/release/examples/11_parse-164c6f76f6689c07.11_parse.c4d2cdbc-cgu.5.rcgu.o:(.data.rel.ro..Lanon.82585a2cba6af83290cfbb5e2bd36c75.42)
   114e4    114e4        4     1         /workspaces/mos-hardware/target/mos-mega65-none/release/examples/11_parse-164c6f76f6689c07.11_parse.c4d2cdbc-cgu.5.rcgu.o:(.data.rel.ro..Lanon.82585a2cba6af83290cfbb5e2bd36c75.45)
   114e8    114e8        8     1         /workspaces/mos-hardware/target/mos-mega65-none/release/examples/11_parse-164c6f76f6689c07.11_parse.c4d2cdbc-cgu.5.rcgu.o:(.data.rel.ro..Lanon.82585a2cba6af83290cfbb5e2bd36c75.46)
   114f0    114f0       24     1         /workspaces/mos-hardware/target/mos-mega65-none/release/examples/11_parse-164c6f76f6689c07.11_parse.c4d2cdbc-cgu.5.rcgu.o:(.data.rel.ro..Lanon.82585a2cba6af83290cfbb5e2bd36c75.68)
   11514    11514        c     1         /workspaces/mos-hardware/target/mos-mega65-none/release/examples/11_parse-164c6f76f6689c07.11_parse.c4d2cdbc-cgu.5.rcgu.o:(.data.rel.ro..Lanon.2b081a07fa9a53acefb90c71d1a4ca21.0)
   11520    11520        0     1         __data_end = .
   11520    11520        0     1 __data_load_start = LOADADDR ( .data )
   11520    11520        0     1 __data_size = SIZEOF ( .data )
   11520    11520       23     2 .bss
   11520    11520        0     1         __bss_start = .
   11520    11520        6     2         lto.tmp:(.bss._ZZN12_GLOBAL__N_113get_free_listEvE9free_list)
   11520    11520        6     1                 (anonymous namespace)::get_free_list()::free_list
   11526    11526       14     1         /tmp/rustcBzJWrP/libmos_hardware-1ab2e04af915e145.rlib(memory.o):(.bss.dmalist)
   11526    11526       14     1                 dmalist
   1153a    1153a        1     1         /tmp/rustcBzJWrP/libmos_hardware-1ab2e04af915e145.rlib(memory.o):(.bss.dma_byte)
   1153a    1153a        1     1                 dma_byte
   1153b    1153b        8     1         lto.tmp:(.bss._ZGVZN12_GLOBAL__N_113get_free_listEvE9free_list)
   1153b    1153b        8     1                 guard variable for (anonymous namespace)::get_free_list()::free_list
   11543    11543        0     1         __bss_end = .
   11543    11543        0     1 __bss_size = SIZEOF ( .bss )
   11543    11543       26     1 .noinit
   11543    11543       24     1         /workspaces/mos-hardware/target/mos-mega65-none/release/examples/11_parse-164c6f76f6689c07.11_parse.c4d2cdbc-cgu.5.rcgu.o:(.noinit..Lstatic_stack)
   11567    11567        1     1         /usr/local/bin/../mos-platform/commodore/lib/libcrt0.a(exit-return.c.obj):(.noinit)
   11568    11568        1     1         /usr/local/bin/../mos-platform/commodore/lib/libcrt0.a(_exit.S.obj):(.noinit)
   11568    11568        0     1                 __save_s
   11569    11569        0     1         __heap_start = .
   11569    11569        0     1 __stack = 0xcfff
       0        0      be7     1 .debug_abbrev
       0        0      388     1         /workspaces/mos-hardware/target/mos-mega65-none/release/examples/11_parse-164c6f76f6689c07.11_parse.c4d2cdbc-cgu.5.rcgu.o:(.debug_abbrev)
     388      388      394     1         /tmp/rustcBzJWrP/libmos_hardware-1ab2e04af915e145.rlib(conio.o):(.debug_abbrev)
     71c      71c       f8     1         /tmp/rustcBzJWrP/libmos_hardware-1ab2e04af915e145.rlib(memory.o):(.debug_abbrev)
     814      814      1dd     1         /tmp/rustcBzJWrP/libmos_hardware-1ab2e04af915e145.rlib(sdcard.o):(.debug_abbrev)
     9f1      9f1       8a     1         /tmp/rustcBzJWrP/libmos_hardware-1ab2e04af915e145.rlib(hal.o):(.debug_abbrev)
     a7b      a7b       31     1         /workspaces/mos-hardware/target/mos-mega65-none/release/deps/libcompiler_builtins-90da6d5ceaab16ba.rlib(compiler_builtins-90da6d5ceaab16ba.compiler_builtins.b5f4e56a-cgu.1.rcgu.o):(.debug_abbrev)
     aac      aac       d9     1         /workspaces/mos-hardware/target/mos-mega65-none/release/deps/libcompiler_builtins-90da6d5ceaab16ba.rlib(compiler_builtins-90da6d5ceaab16ba.compiler_builtins.b5f4e56a-cgu.4.rcgu.o):(.debug_abbrev)
     b85      b85       31     1         /workspaces/mos-hardware/target/mos-mega65-none/release/deps/libcompiler_builtins-90da6d5ceaab16ba.rlib(compiler_builtins-90da6d5ceaab16ba.compiler_builtins.b5f4e56a-cgu.7.rcgu.o):(.debug_abbrev)
     bb6      bb6       31     1         /workspaces/mos-hardware/target/mos-mega65-none/release/deps/libcompiler_builtins-90da6d5ceaab16ba.rlib(compiler_builtins-90da6d5ceaab16ba.compiler_builtins.b5f4e56a-cgu.8.rcgu.o):(.debug_abbrev)
       0        0     af33     1 .debug_info
       0        0     91a6     1         /workspaces/mos-hardware/target/mos-mega65-none/release/examples/11_parse-164c6f76f6689c07.11_parse.c4d2cdbc-cgu.5.rcgu.o:(.debug_info)
    91a6     91a6      e87     1         /tmp/rustcBzJWrP/libmos_hardware-1ab2e04af915e145.rlib(conio.o):(.debug_info)
    a02d     a02d      2a5     1         /tmp/rustcBzJWrP/libmos_hardware-1ab2e04af915e145.rlib(memory.o):(.debug_info)
    a2d2     a2d2      2c8     1         /tmp/rustcBzJWrP/libmos_hardware-1ab2e04af915e145.rlib(sdcard.o):(.debug_info)
    a59a     a59a       71     1         /tmp/rustcBzJWrP/libmos_hardware-1ab2e04af915e145.rlib(hal.o):(.debug_info)
    a60b     a60b       49     1         /workspaces/mos-hardware/target/mos-mega65-none/release/deps/libcompiler_builtins-90da6d5ceaab16ba.rlib(compiler_builtins-90da6d5ceaab16ba.compiler_builtins.b5f4e56a-cgu.1.rcgu.o):(.debug_info)
    a654     a654      84d     1         /workspaces/mos-hardware/target/mos-mega65-none/release/deps/libcompiler_builtins-90da6d5ceaab16ba.rlib(compiler_builtins-90da6d5ceaab16ba.compiler_builtins.b5f4e56a-cgu.4.rcgu.o):(.debug_info)
    aea1     aea1       49     1         /workspaces/mos-hardware/target/mos-mega65-none/release/deps/libcompiler_builtins-90da6d5ceaab16ba.rlib(compiler_builtins-90da6d5ceaab16ba.compiler_builtins.b5f4e56a-cgu.7.rcgu.o):(.debug_info)
    aeea     aeea       49     1         /workspaces/mos-hardware/target/mos-mega65-none/release/deps/libcompiler_builtins-90da6d5ceaab16ba.rlib(compiler_builtins-90da6d5ceaab16ba.compiler_builtins.b5f4e56a-cgu.8.rcgu.o):(.debug_info)
       0        0      260     1 .debug_aranges
       0        0      1f0     1         /workspaces/mos-hardware/target/mos-mega65-none/release/examples/11_parse-164c6f76f6689c07.11_parse.c4d2cdbc-cgu.5.rcgu.o:(.debug_aranges)
     1f0      1f0       14     1         /workspaces/mos-hardware/target/mos-mega65-none/release/deps/libcompiler_builtins-90da6d5ceaab16ba.rlib(compiler_builtins-90da6d5ceaab16ba.compiler_builtins.b5f4e56a-cgu.1.rcgu.o):(.debug_aranges)
     204      204       34     1         /workspaces/mos-hardware/target/mos-mega65-none/release/deps/libcompiler_builtins-90da6d5ceaab16ba.rlib(compiler_builtins-90da6d5ceaab16ba.compiler_builtins.b5f4e56a-cgu.4.rcgu.o):(.debug_aranges)
     238      238       14     1         /workspaces/mos-hardware/target/mos-mega65-none/release/deps/libcompiler_builtins-90da6d5ceaab16ba.rlib(compiler_builtins-90da6d5ceaab16ba.compiler_builtins.b5f4e56a-cgu.7.rcgu.o):(.debug_aranges)
     24c      24c       14     1         /workspaces/mos-hardware/target/mos-mega65-none/release/deps/libcompiler_builtins-90da6d5ceaab16ba.rlib(compiler_builtins-90da6d5ceaab16ba.compiler_builtins.b5f4e56a-cgu.8.rcgu.o):(.debug_aranges)
       0        0     18c8     1 .debug_ranges
       0        0     1854     1         /workspaces/mos-hardware/target/mos-mega65-none/release/examples/11_parse-164c6f76f6689c07.11_parse.c4d2cdbc-cgu.5.rcgu.o:(.debug_ranges)
    1854     1854       74     1         /workspaces/mos-hardware/target/mos-mega65-none/release/deps/libcompiler_builtins-90da6d5ceaab16ba.rlib(compiler_builtins-90da6d5ceaab16ba.compiler_builtins.b5f4e56a-cgu.4.rcgu.o):(.debug_ranges)
       0        0     ef51     1 .debug_str
       0        0     ef51     1         <internal>:(.debug_str)
       0        0     602f     1 .debug_pubnames
       0        0     5bf7     1         /workspaces/mos-hardware/target/mos-mega65-none/release/examples/11_parse-164c6f76f6689c07.11_parse.c4d2cdbc-cgu.5.rcgu.o:(.debug_pubnames)
    5bf7     5bf7       3b     1         /workspaces/mos-hardware/target/mos-mega65-none/release/deps/libcompiler_builtins-90da6d5ceaab16ba.rlib(compiler_builtins-90da6d5ceaab16ba.compiler_builtins.b5f4e56a-cgu.1.rcgu.o):(.debug_pubnames)
    5c32     5c32      387     1         /workspaces/mos-hardware/target/mos-mega65-none/release/deps/libcompiler_builtins-90da6d5ceaab16ba.rlib(compiler_builtins-90da6d5ceaab16ba.compiler_builtins.b5f4e56a-cgu.4.rcgu.o):(.debug_pubnames)
    5fb9     5fb9       3b     1         /workspaces/mos-hardware/target/mos-mega65-none/release/deps/libcompiler_builtins-90da6d5ceaab16ba.rlib(compiler_builtins-90da6d5ceaab16ba.compiler_builtins.b5f4e56a-cgu.7.rcgu.o):(.debug_pubnames)
    5ff4     5ff4       3b     1         /workspaces/mos-hardware/target/mos-mega65-none/release/deps/libcompiler_builtins-90da6d5ceaab16ba.rlib(compiler_builtins-90da6d5ceaab16ba.compiler_builtins.b5f4e56a-cgu.8.rcgu.o):(.debug_pubnames)
       0        0      29a     1 .debug_pubtypes
       0        0      252     1         /workspaces/mos-hardware/target/mos-mega65-none/release/examples/11_parse-164c6f76f6689c07.11_parse.c4d2cdbc-cgu.5.rcgu.o:(.debug_pubtypes)
     252      252       12     1         /workspaces/mos-hardware/target/mos-mega65-none/release/deps/libcompiler_builtins-90da6d5ceaab16ba.rlib(compiler_builtins-90da6d5ceaab16ba.compiler_builtins.b5f4e56a-cgu.1.rcgu.o):(.debug_pubtypes)
     264      264       12     1         /workspaces/mos-hardware/target/mos-mega65-none/release/deps/libcompiler_builtins-90da6d5ceaab16ba.rlib(compiler_builtins-90da6d5ceaab16ba.compiler_builtins.b5f4e56a-cgu.4.rcgu.o):(.debug_pubtypes)
     276      276       12     1         /workspaces/mos-hardware/target/mos-mega65-none/release/deps/libcompiler_builtins-90da6d5ceaab16ba.rlib(compiler_builtins-90da6d5ceaab16ba.compiler_builtins.b5f4e56a-cgu.7.rcgu.o):(.debug_pubtypes)
     288      288       12     1         /workspaces/mos-hardware/target/mos-mega65-none/release/deps/libcompiler_builtins-90da6d5ceaab16ba.rlib(compiler_builtins-90da6d5ceaab16ba.compiler_builtins.b5f4e56a-cgu.8.rcgu.o):(.debug_pubtypes)
       0        0     a008     1 .debug_line
       0        0     7de5     1         /workspaces/mos-hardware/target/mos-mega65-none/release/examples/11_parse-164c6f76f6689c07.11_parse.c4d2cdbc-cgu.5.rcgu.o:(.debug_line)
    7de5     7de5     109a     1         /tmp/rustcBzJWrP/libmos_hardware-1ab2e04af915e145.rlib(conio.o):(.debug_line)
    8e7f     8e7f      2b5     1         /tmp/rustcBzJWrP/libmos_hardware-1ab2e04af915e145.rlib(memory.o):(.debug_line)
    9134     9134      551     1         /tmp/rustcBzJWrP/libmos_hardware-1ab2e04af915e145.rlib(sdcard.o):(.debug_line)
    9685     9685       97     1         /tmp/rustcBzJWrP/libmos_hardware-1ab2e04af915e145.rlib(hal.o):(.debug_line)
    971c     971c       41     1         /workspaces/mos-hardware/target/mos-mega65-none/release/deps/libcompiler_builtins-90da6d5ceaab16ba.rlib(compiler_builtins-90da6d5ceaab16ba.compiler_builtins.b5f4e56a-cgu.1.rcgu.o):(.debug_line)
    975d     975d      829     1         /workspaces/mos-hardware/target/mos-mega65-none/release/deps/libcompiler_builtins-90da6d5ceaab16ba.rlib(compiler_builtins-90da6d5ceaab16ba.compiler_builtins.b5f4e56a-cgu.4.rcgu.o):(.debug_line)
    9f86     9f86       41     1         /workspaces/mos-hardware/target/mos-mega65-none/release/deps/libcompiler_builtins-90da6d5ceaab16ba.rlib(compiler_builtins-90da6d5ceaab16ba.compiler_builtins.b5f4e56a-cgu.7.rcgu.o):(.debug_line)
    9fc7     9fc7       41     1         /workspaces/mos-hardware/target/mos-mega65-none/release/deps/libcompiler_builtins-90da6d5ceaab16ba.rlib(compiler_builtins-90da6d5ceaab16ba.compiler_builtins.b5f4e56a-cgu.8.rcgu.o):(.debug_line)
       0        0      7a7     1 .debug_loclists
       0        0      690     1         /tmp/rustcBzJWrP/libmos_hardware-1ab2e04af915e145.rlib(conio.o):(.debug_loclists)
     690      690      101     1         /tmp/rustcBzJWrP/libmos_hardware-1ab2e04af915e145.rlib(sdcard.o):(.debug_loclists)
     791      791       16     1         /tmp/rustcBzJWrP/libmos_hardware-1ab2e04af915e145.rlib(hal.o):(.debug_loclists)
       0        0      165     1 .debug_rnglists
       0        0      104     1         /tmp/rustcBzJWrP/libmos_hardware-1ab2e04af915e145.rlib(conio.o):(.debug_rnglists)
     104      104       2e     1         /tmp/rustcBzJWrP/libmos_hardware-1ab2e04af915e145.rlib(memory.o):(.debug_rnglists)
     132      132       33     1         /tmp/rustcBzJWrP/libmos_hardware-1ab2e04af915e145.rlib(sdcard.o):(.debug_rnglists)
       0        0      420     1 .debug_str_offsets
       0        0      280     1         /tmp/rustcBzJWrP/libmos_hardware-1ab2e04af915e145.rlib(conio.o):(.debug_str_offsets)
     280      280       ac     1         /tmp/rustcBzJWrP/libmos_hardware-1ab2e04af915e145.rlib(memory.o):(.debug_str_offsets)
     32c      32c       c4     1         /tmp/rustcBzJWrP/libmos_hardware-1ab2e04af915e145.rlib(sdcard.o):(.debug_str_offsets)
     3f0      3f0       30     1         /tmp/rustcBzJWrP/libmos_hardware-1ab2e04af915e145.rlib(hal.o):(.debug_str_offsets)
       0        0      1a8     1 .debug_addr
       0        0      114     1         /tmp/rustcBzJWrP/libmos_hardware-1ab2e04af915e145.rlib(conio.o):(.debug_addr)
     114      114       34     1         /tmp/rustcBzJWrP/libmos_hardware-1ab2e04af915e145.rlib(memory.o):(.debug_addr)
     148      148       54     1         /tmp/rustcBzJWrP/libmos_hardware-1ab2e04af915e145.rlib(sdcard.o):(.debug_addr)
     19c      19c        c     1         /tmp/rustcBzJWrP/libmos_hardware-1ab2e04af915e145.rlib(hal.o):(.debug_addr)
       0        0       29     1 .comment
       0        0       29     1         <internal>:(.comment)
       0        0       cd     1 .debug_line_str
       0        0       cd     1         <internal>:(.debug_line_str)
       0        0      fd0     4 .symtab
       0        0      fd0     4         <internal>:(.symtab)
       0        0      138     1 .shstrtab
       0        0      138     1         <internal>:(.shstrtab)
       0        0     1531     1 .strtab
       0        0     1531     1         <internal>:(.strtab)
