     VMA      LMA     Size Align Out     In      Symbol
       0        0        0     1 __basic_zp_start = 0x0002
       0        0        0     1 __basic_zp_end = 0x0090
       0        0        0     1 __rc0 = 0x0002
       0        0        0     1 __rc1 = __rc0 + 1
       0        0        0     1 PROVIDE ( __rc2 = __rc1 + 1 )
       0        0        0     1 __rc3 = __rc2 + 1
       0        0        0     1 PROVIDE ( __rc4 = __rc3 + 1 )
       0        0        0     1 __rc5 = __rc4 + 1
       0        0        0     1 PROVIDE ( __rc6 = __rc5 + 1 )
       0        0        0     1 __rc7 = __rc6 + 1
       0        0        0     1 PROVIDE ( __rc8 = __rc7 + 1 )
       0        0        0     1 __rc9 = __rc8 + 1
       0        0        0     1 PROVIDE ( __rc10 = __rc9 + 1 )
       0        0        0     1 __rc11 = __rc10 + 1
       0        0        0     1 PROVIDE ( __rc12 = __rc11 + 1 )
       0        0        0     1 __rc13 = __rc12 + 1
       0        0        0     1 PROVIDE ( __rc14 = __rc13 + 1 )
       0        0        0     1 __rc15 = __rc14 + 1
       0        0        0     1 PROVIDE ( __rc16 = __rc15 + 1 )
       0        0        0     1 __rc17 = __rc16 + 1
       0        0        0     1 PROVIDE ( __rc18 = __rc17 + 1 )
       0        0        0     1 __rc19 = __rc18 + 1
       0        0        0     1 PROVIDE ( __rc20 = __rc19 + 1 )
       0        0        0     1 __rc21 = __rc20 + 1
       0        0        0     1 PROVIDE ( __rc22 = __rc21 + 1 )
       0        0        0     1 __rc23 = __rc22 + 1
       0        0        0     1 PROVIDE ( __rc24 = __rc23 + 1 )
       0        0        0     1 __rc25 = __rc24 + 1
       0        0        0     1 PROVIDE ( __rc26 = __rc25 + 1 )
       0        0        0     1 __rc27 = __rc26 + 1
       0        0        0     1 PROVIDE ( __rc28 = __rc27 + 1 )
       0        0        0     1 __rc29 = __rc28 + 1
       0        0        0     1 PROVIDE ( __rc30 = __rc29 + 1 )
       0        0        0     1 __rc31 = __rc30 + 1
       0        0        0     1 
    2001     2001       16     1 .basic_header
    2001     2001       16     1         /usr/local/bin/../mos-platform/mega65/lib/basic-header.o:(.basic_header)
    2015     2015        0     1                 next_line
    2017     2017       22     1 .debug_gdb_scripts
    2017     2017       22     1         <internal>:(.debug_gdb_scripts)
      22       22        0     1 .zp.data
      22       22        0     1         __zp_data_start = .
      22       22        0     1 __zp_data_load_start = LOADADDR ( .zp.data )
      22       22        0     1 __zp_data_size = SIZEOF ( .zp.data )
      22       22        0     1 .zp.bss
      22       22        0     1         __zp_bss_start = .
      22       22        0     1 __zp_bss_size = SIZEOF ( .zp.bss )
      22       22       14     1 .zp
      22       22       14     1         lto.tmp:(.zp.noinit..Lzp_stack)
    203a     203a    11957     2 .text
    203a     203a        0     1         _init = .
    203a     203a        0     1         _start = .
    203a     203a        8     1         /usr/local/bin/../mos-platform/commodore/lib/libcrt0.a(init-stack.S.obj):(.init.10)
    203a     203a        0     1                 __do_init_stack
    2042     2042        4     1         /usr/local/bin/../mos-platform/commodore/lib/libcrt0.a(_exit.S.obj):(.init.10)
    2046     2046        3     1         /usr/local/bin/../mos-platform/commodore/lib/libcrt0.a(zero-bss.c.obj):(.init.20)
    2046     2046        0     1                 __do_zero_bss
    2049     2049        3     1         /usr/local/bin/../mos-platform/common/lib/crt0.o:(.call_main)
    204c     204c        3     1         /usr/local/bin/../mos-platform/commodore/lib/libcrt0.a(exit-return.c.obj):(.after_main)
    204c     204c        0     1                 __after_main
    204f     204f        0     1         _fini = .
    204f     204f        1     1         /usr/local/bin/../mos-platform/common/lib/crt0.o:(.fini_rts)
    2050     2050      2af     2         lto.tmp:(.text._ZN12_GLOBAL__N_19blocklist11split_blockEPNS_5blockEt)
    2050     2050      2af     1                 (anonymous namespace)::blocklist::split_block((anonymous namespace)::block*, unsigned short)
    22ff     22ff       31     1         /workspaces/mos-hardware/target/mos-mega65-none/release/examples/11_parse-6e530e5be16e61ac.11_parse.64932adb-cgu.2.rcgu.o:(.text._ZN4core3ptr42drop_in_place$LT$alloc..string..String$GT$17h2d4563fcfbdb094bE)
    22ff     22ff       31     1                 core::ptr::drop_in_place$LT$alloc..string..String$GT$::h2d4563fcfbdb094b
    2330     2330      49d     1         /workspaces/mos-hardware/target/mos-mega65-none/release/examples/11_parse-6e530e5be16e61ac.11_parse.64932adb-cgu.2.rcgu.o:(.text._ZN4core3str21_$LT$impl$u20$str$GT$4find17h28228571f5364367E)
    2330     2330      49d     1                 core::str::_$LT$impl$u20$str$GT$::find::h28228571f5364367
    27cd     27cd      764     1         /workspaces/mos-hardware/target/mos-mega65-none/release/examples/11_parse-6e530e5be16e61ac.11_parse.64932adb-cgu.2.rcgu.o:(.text._ZN4core3str7pattern14TwoWaySearcher4next17hcacfb8fe33e4eb67E)
    27cd     27cd      764     1                 core::str::pattern::TwoWaySearcher::next::hcacfb8fe33e4eb67
    2f31     2f31      2d9     1         /workspaces/mos-hardware/target/mos-mega65-none/release/examples/11_parse-6e530e5be16e61ac.11_parse.64932adb-cgu.2.rcgu.o:(.text._ZN58_$LT$alloc..string..String$u20$as$u20$core..fmt..Write$GT$10write_char17h7a5b4233a5a12b04E)
    2f31     2f31      2d9     1                 _$LT$alloc..string..String$u20$as$u20$core..fmt..Write$GT$::write_char::h7a5b4233a5a12b04
    320a     320a        6     1         /workspaces/mos-hardware/target/mos-mega65-none/release/examples/11_parse-6e530e5be16e61ac.11_parse.64932adb-cgu.2.rcgu.o:(.text._ZN58_$LT$alloc..string..String$u20$as$u20$core..fmt..Write$GT$9write_str17h2371acc6c5ca1fe7E)
    320a     320a        6     1                 _$LT$alloc..string..String$u20$as$u20$core..fmt..Write$GT$::write_str::h2371acc6c5ca1fe7
    3210     3210       38     1         /workspaces/mos-hardware/target/mos-mega65-none/release/examples/11_parse-6e530e5be16e61ac.11_parse.64932adb-cgu.2.rcgu.o:(.text._ZN60_$LT$alloc..string..String$u20$as$u20$core..fmt..Display$GT$3fmt17hda993d7ae29f0269E)
    3210     3210       38     1                 _$LT$alloc..string..String$u20$as$u20$core..fmt..Display$GT$::fmt::hda993d7ae29f0269
    3248     3248      508     1         /workspaces/mos-hardware/target/mos-mega65-none/release/examples/11_parse-6e530e5be16e61ac.11_parse.64932adb-cgu.2.rcgu.o:(.text._ZN80_$LT$core..str..pattern..StrSearcher$u20$as$u20$core..str..pattern..Searcher$GT$10next_match17hbbeabd06313ac959E)
    3248     3248      508     1                 _$LT$core..str..pattern..StrSearcher$u20$as$u20$core..str..pattern..Searcher$GT$::next_match::hbbeabd06313ac959
    3750     3750       bd     1         /workspaces/mos-hardware/target/mos-mega65-none/release/examples/11_parse-6e530e5be16e61ac.11_parse.64932adb-cgu.2.rcgu.o:(.text._ZN9_11_parse8index_of17h091b9ed735ae47c9E)
    3750     3750       bd     1                 _11_parse::index_of::h091b9ed735ae47c9
    380d     380d     573f     1         /workspaces/mos-hardware/target/mos-mega65-none/release/examples/11_parse-6e530e5be16e61ac.11_parse.64932adb-cgu.2.rcgu.o:(.text._ZN9_11_parse11declare_var17h65b5e786a3b8600cE)
    380d     380d     573f     1                 _11_parse::declare_var::h65b5e786a3b8600c
    8f4c     8f4c      3c3     1         /workspaces/mos-hardware/target/mos-mega65-none/release/examples/11_parse-6e530e5be16e61ac.11_parse.64932adb-cgu.2.rcgu.o:(.text._ZN9_11_parse27generate_varname_from_index17h9b27dad16542bbcaE)
    8f4c     8f4c      3c3     1                 _11_parse::generate_varname_from_index::h9b27dad16542bbca
    930f     930f      268     1         /workspaces/mos-hardware/target/mos-mega65-none/release/examples/11_parse-6e530e5be16e61ac.11_parse.64932adb-cgu.2.rcgu.o:(.text._ZN9_11_parse9trim_left17hea7a29eb510d8704E)
    930f     930f      268     1                 _11_parse::trim_left::hea7a29eb510d8704
    9577     9577      22c     1         /workspaces/mos-hardware/target/mos-mega65-none/release/examples/11_parse-6e530e5be16e61ac.11_parse.64932adb-cgu.2.rcgu.o:(.text._ZN9_11_parse10trim_right17h6a9e43d512872afbE)
    9577     9577      22c     1                 _11_parse::trim_right::h6a9e43d512872afb
    97a3     97a3      1fa     1         /workspaces/mos-hardware/target/mos-mega65-none/release/examples/11_parse-6e530e5be16e61ac.11_parse.64932adb-cgu.2.rcgu.o:(.text._ZN9_11_parse8trim_all17hda8c5797172a05f6E)
    97a3     97a3      1fa     1                 _11_parse::trim_all::hda8c5797172a05f6
    999d     999d       12     1         /workspaces/mos-hardware/target/mos-mega65-none/release/examples/11_parse-6e530e5be16e61ac.11_parse.64932adb-cgu.2.rcgu.o:(.text.rust_begin_unwind)
    999d     999d       12     1                 rust_begin_unwind
    99af     99af     233a     1         /workspaces/mos-hardware/target/mos-mega65-none/release/examples/11_parse-6e530e5be16e61ac.11_parse.64932adb-cgu.2.rcgu.o:(.text.main)
    99af     99af     233a     1                 main
    bce9     bce9       51     1         /workspaces/mos-hardware/target/mos-mega65-none/release/examples/11_parse-6e530e5be16e61ac.11_parse.64932adb-cgu.2.rcgu.o:(.text._ZN4ufmt18Formatter$LT$W$GT$9write_str17h02369c086a7e0b29E)
    bce9     bce9       51     1                 ufmt::Formatter$LT$W$GT$::write_str::h02369c086a7e0b29
    bd3a     bd3a       23     1         /workspaces/mos-hardware/target/mos-mega65-none/release/examples/11_parse-6e530e5be16e61ac.11_parse.64932adb-cgu.2.rcgu.o:(.text._ZN5alloc7raw_vec19RawVec$LT$T$C$A$GT$11allocate_in17hb267b4ca6b4b92cfE)
    bd3a     bd3a       23     1                 alloc::raw_vec::RawVec$LT$T$C$A$GT$::allocate_in::hb267b4ca6b4b92cf
    bd5d     bd5d      245     1         /workspaces/mos-hardware/target/mos-mega65-none/release/examples/11_parse-6e530e5be16e61ac.11_parse.64932adb-cgu.2.rcgu.o:(.text._ZN5alloc7raw_vec19RawVec$LT$T$C$A$GT$16reserve_for_push17h25d8027b61264c5aE)
    bd5d     bd5d      245     1                 alloc::raw_vec::RawVec$LT$T$C$A$GT$::reserve_for_push::h25d8027b61264c5a
    bfa2     bfa2      26a     1         /workspaces/mos-hardware/target/mos-mega65-none/release/examples/11_parse-6e530e5be16e61ac.11_parse.64932adb-cgu.2.rcgu.o:(.text._ZN5alloc7raw_vec19RawVec$LT$T$C$A$GT$16reserve_for_push17h7b67561792eef58eE)
    bfa2     bfa2      26a     1                 alloc::raw_vec::RawVec$LT$T$C$A$GT$::reserve_for_push::h7b67561792eef58e
    c20c     c20c      155     1         /workspaces/mos-hardware/target/mos-mega65-none/release/examples/11_parse-6e530e5be16e61ac.11_parse.64932adb-cgu.2.rcgu.o:(.text._ZN4ufmt5impls3uxx46_$LT$impl$u20$ufmt..uDebug$u20$for$u20$u16$GT$3fmt17h5d3580162c01155cE)
    c20c     c20c      155     1                 ufmt::impls::uxx::_$LT$impl$u20$ufmt..uDebug$u20$for$u20$u16$GT$::fmt::h5d3580162c01155c
    c361     c361       44     1         /workspaces/mos-hardware/target/mos-mega65-none/release/examples/11_parse-6e530e5be16e61ac.11_parse.64932adb-cgu.2.rcgu.o:(.text._ZN52_$LT$$RF$mut$u20$T$u20$as$u20$core..fmt..Display$GT$3fmt17h2b40bf1c426c7083E)
    c361     c361       44     1                 _$LT$$RF$mut$u20$T$u20$as$u20$core..fmt..Display$GT$::fmt::h2b40bf1c426c7083
    c3a5     c3a5       1f     1         /workspaces/mos-hardware/target/mos-mega65-none/release/examples/11_parse-6e530e5be16e61ac.11_parse.64932adb-cgu.2.rcgu.o:(.text._ZN49_$LT$W$u20$as$u20$ufmt..UnstableDoAsFormatter$GT$15do_as_formatter17h7b7e13693e92fab2E)
    c3a5     c3a5       1f     1                 _$LT$W$u20$as$u20$ufmt..UnstableDoAsFormatter$GT$::do_as_formatter::h7b7e13693e92fab2
    c3c4     c3c4       c8     1         /workspaces/mos-hardware/target/mos-mega65-none/release/examples/11_parse-6e530e5be16e61ac.11_parse.64932adb-cgu.2.rcgu.o:(.text._ZN70_$LT$alloc..vec..Vec$LT$T$C$A$GT$$u20$as$u20$core..ops..drop..Drop$GT$4drop17h2f83ba9d7c55e6f3E)
    c3c4     c3c4       c8     1                 _$LT$alloc..vec..Vec$LT$T$C$A$GT$$u20$as$u20$core..ops..drop..Drop$GT$::drop::h2f83ba9d7c55e6f3
    c48c     c48c        3     1         /workspaces/mos-hardware/target/mos-mega65-none/release/examples/11_parse-6e530e5be16e61ac.11_parse.64932adb-cgu.2.rcgu.o:(.text.__rust_alloc)
    c48c     c48c        3     1                 __rust_alloc
    c48f     c48f        3     1         /workspaces/mos-hardware/target/mos-mega65-none/release/examples/11_parse-6e530e5be16e61ac.11_parse.64932adb-cgu.2.rcgu.o:(.text.__rust_dealloc)
    c48f     c48f        3     1                 __rust_dealloc
    c492     c492        3     1         /workspaces/mos-hardware/target/mos-mega65-none/release/examples/11_parse-6e530e5be16e61ac.11_parse.64932adb-cgu.2.rcgu.o:(.text.__rust_realloc)
    c492     c492        3     1                 __rust_realloc
    c495     c495        3     1         /workspaces/mos-hardware/target/mos-mega65-none/release/examples/11_parse-6e530e5be16e61ac.11_parse.64932adb-cgu.2.rcgu.o:(.text.__rust_alloc_error_handler)
    c495     c495        3     1                 __rust_alloc_error_handler
    c498     c498       51     1         /workspaces/mos-hardware/target/mos-mega65-none/release/examples/11_parse-6e530e5be16e61ac.11_parse.64932adb-cgu.2.rcgu.o:(.text._ZN5alloc7raw_vec19RawVec$LT$T$C$A$GT$11allocate_in17h44daef9a608d6146E)
    c498     c498       51     1                 alloc::raw_vec::RawVec$LT$T$C$A$GT$::allocate_in::h44daef9a608d6146
    c4e9     c4e9        3     1         /workspaces/mos-hardware/target/mos-mega65-none/release/examples/11_parse-6e530e5be16e61ac.11_parse.64932adb-cgu.2.rcgu.o:(.text._ZN5alloc7raw_vec17capacity_overflow17h673eac4e36de4595E)
    c4e9     c4e9        3     1                 alloc::raw_vec::capacity_overflow::h673eac4e36de4595
    c4ec     c4ec       21     1         /workspaces/mos-hardware/target/mos-mega65-none/release/examples/11_parse-6e530e5be16e61ac.11_parse.64932adb-cgu.2.rcgu.o:(.text.unlikely._ZN5alloc7raw_vec19RawVec$LT$T$C$A$GT$7reserve21do_reserve_and_handle17h92bb15956044f353E)
    c4ec     c4ec       21     1                 alloc::raw_vec::RawVec$LT$T$C$A$GT$::reserve::do_reserve_and_handle::h92bb15956044f353
    c50d     c50d      231     1         /workspaces/mos-hardware/target/mos-mega65-none/release/examples/11_parse-6e530e5be16e61ac.11_parse.64932adb-cgu.2.rcgu.o:(.text._ZN5alloc7raw_vec19RawVec$LT$T$C$A$GT$14grow_amortized17h29050416572a0b69E)
    c50d     c50d      231     1                 alloc::raw_vec::RawVec$LT$T$C$A$GT$::grow_amortized::h29050416572a0b69
    c73e     c73e      198     1         /workspaces/mos-hardware/target/mos-mega65-none/release/examples/11_parse-6e530e5be16e61ac.11_parse.64932adb-cgu.2.rcgu.o:(.text._ZN5alloc7raw_vec11finish_grow17h5bf9df3f980e3431E)
    c73e     c73e      198     1                 alloc::raw_vec::finish_grow::h5bf9df3f980e3431
    c8d6     c8d6       28     1         /workspaces/mos-hardware/target/mos-mega65-none/release/examples/11_parse-6e530e5be16e61ac.11_parse.64932adb-cgu.2.rcgu.o:(.text._ZN5alloc7raw_vec19RawVec$LT$T$C$A$GT$16reserve_for_push17h9d4dc57ca6f0cd7aE)
    c8d6     c8d6       28     1                 alloc::raw_vec::RawVec$LT$T$C$A$GT$::reserve_for_push::h9d4dc57ca6f0cd7a
    c8fe     c8fe       80     1         /workspaces/mos-hardware/target/mos-mega65-none/release/examples/11_parse-6e530e5be16e61ac.11_parse.64932adb-cgu.2.rcgu.o:(.text._ZN4core3fmt5Write9write_fmt17ha8b1b6b1735a47dcE)
    c8fe     c8fe       80     1                 core::fmt::Write::write_fmt::ha8b1b6b1735a47dc
    c97e     c97e       1b     1         /workspaces/mos-hardware/target/mos-mega65-none/release/examples/11_parse-6e530e5be16e61ac.11_parse.64932adb-cgu.2.rcgu.o:(.text._ZN50_$LT$$RF$mut$u20$W$u20$as$u20$core..fmt..Write$GT$9write_str17h630fc9ff0fb8624aE)
    c97e     c97e       1b     1                 _$LT$$RF$mut$u20$W$u20$as$u20$core..fmt..Write$GT$::write_str::h630fc9ff0fb8624a
    c999     c999      319     1         /workspaces/mos-hardware/target/mos-mega65-none/release/examples/11_parse-6e530e5be16e61ac.11_parse.64932adb-cgu.2.rcgu.o:(.text._ZN50_$LT$$RF$mut$u20$W$u20$as$u20$core..fmt..Write$GT$10write_char17heba42ca3f7c578f3E)
    c999     c999      319     1                 _$LT$$RF$mut$u20$W$u20$as$u20$core..fmt..Write$GT$::write_char::heba42ca3f7c578f3
    ccb2     ccb2       80     1         /workspaces/mos-hardware/target/mos-mega65-none/release/examples/11_parse-6e530e5be16e61ac.11_parse.64932adb-cgu.2.rcgu.o:(.text._ZN50_$LT$$RF$mut$u20$W$u20$as$u20$core..fmt..Write$GT$9write_fmt17h6eb4cdbe8d120e31E)
    ccb2     ccb2       80     1                 _$LT$$RF$mut$u20$W$u20$as$u20$core..fmt..Write$GT$::write_fmt::h6eb4cdbe8d120e31
    cd32     cd32        3     1         /workspaces/mos-hardware/target/mos-mega65-none/release/examples/11_parse-6e530e5be16e61ac.11_parse.64932adb-cgu.2.rcgu.o:(.text.unlikely._ZN5alloc5alloc18handle_alloc_error17hd593bce12feccc2cE)
    cd32     cd32        3     1                 alloc::alloc::handle_alloc_error::hd593bce12feccc2c
    cd35     cd35        3     1         /workspaces/mos-hardware/target/mos-mega65-none/release/examples/11_parse-6e530e5be16e61ac.11_parse.64932adb-cgu.2.rcgu.o:(.text._ZN5alloc5alloc18handle_alloc_error8rt_error17h24cfe0d8e4aee4bbE)
    cd35     cd35        3     1                 alloc::alloc::handle_alloc_error::rt_error::h24cfe0d8e4aee4bb
    cd38     cd38      256     1         /workspaces/mos-hardware/target/mos-mega65-none/release/examples/11_parse-6e530e5be16e61ac.11_parse.64932adb-cgu.2.rcgu.o:(.text._ZN5alloc3fmt6format12format_inner17heb54cf61e34b7ed5E)
    cd38     cd38      256     1                 alloc::fmt::format::format_inner::heb54cf61e34b7ed5
    cf8e     cf8e        3     1         /workspaces/mos-hardware/target/mos-mega65-none/release/examples/11_parse-6e530e5be16e61ac.11_parse.64932adb-cgu.2.rcgu.o:(.text.__rdl_oom)
    cf8e     cf8e        3     1                 __rdl_oom
    cf91     cf91        3     1         /workspaces/mos-hardware/target/mos-mega65-none/release/examples/11_parse-6e530e5be16e61ac.11_parse.64932adb-cgu.2.rcgu.o:(.text.unlikely._ZN5alloc3vec16Vec$LT$T$C$A$GT$9split_off13assert_failed17h7a554bdf45875b1bE)
    cf91     cf91        3     1                 alloc::vec::Vec$LT$T$C$A$GT$::split_off::assert_failed::h7a554bdf45875b1b
    cf94     cf94      143     1         /workspaces/mos-hardware/target/mos-mega65-none/release/examples/11_parse-6e530e5be16e61ac.11_parse.64932adb-cgu.2.rcgu.o:(.text._ZN5alloc3vec16Vec$LT$T$C$A$GT$17extend_from_slice17hd957f95f4975a671E)
    cf94     cf94      143     1                 alloc::vec::Vec$LT$T$C$A$GT$::extend_from_slice::hd957f95f4975a671
    d0d7     d0d7      628     1         /workspaces/mos-hardware/target/mos-mega65-none/release/examples/11_parse-6e530e5be16e61ac.11_parse.64932adb-cgu.2.rcgu.o:(.text._ZN4core3num14from_str_radix17h1dc07b6425faef2aE)
    d0d7     d0d7      628     1                 core::num::from_str_radix::h1dc07b6425faef2a
    d6ff     d6ff        3     1         /workspaces/mos-hardware/target/mos-mega65-none/release/examples/11_parse-6e530e5be16e61ac.11_parse.64932adb-cgu.2.rcgu.o:(.text.unlikely._ZN4core9panicking9panic_fmt17hd424327cd77ea7d2E)
    d6ff     d6ff        3     1                 core::panicking::panic_fmt::hd424327cd77ea7d2
    d702     d702        3     1         /workspaces/mos-hardware/target/mos-mega65-none/release/examples/11_parse-6e530e5be16e61ac.11_parse.64932adb-cgu.2.rcgu.o:(.text.unlikely._ZN4core9panicking18panic_bounds_check17h72be01c45286ff6cE)
    d702     d702        3     1                 core::panicking::panic_bounds_check::h72be01c45286ff6c
    d705     d705        3     1         /workspaces/mos-hardware/target/mos-mega65-none/release/examples/11_parse-6e530e5be16e61ac.11_parse.64932adb-cgu.2.rcgu.o:(.text.unlikely._ZN4core9panicking5panic17hf2cc1b6b049437dbE)
    d705     d705        3     1                 core::panicking::panic::hf2cc1b6b049437db
    d708     d708      3ee     1         /workspaces/mos-hardware/target/mos-mega65-none/release/examples/11_parse-6e530e5be16e61ac.11_parse.64932adb-cgu.2.rcgu.o:(.text._ZN4core3fmt3num3imp7fmt_u3217hb30e4aead9087256E)
    d708     d708      3ee     1                 core::fmt::num::imp::fmt_u32::hb30e4aead9087256
    daf6     daf6        3     1         /workspaces/mos-hardware/target/mos-mega65-none/release/examples/11_parse-6e530e5be16e61ac.11_parse.64932adb-cgu.2.rcgu.o:(.text.unlikely._ZN4core6result13unwrap_failed17h24b9f7d3bb5d4e32E)
    daf6     daf6        3     1                 core::result::unwrap_failed::h24b9f7d3bb5d4e32
    daf9     daf9      342     1         /workspaces/mos-hardware/target/mos-mega65-none/release/examples/11_parse-6e530e5be16e61ac.11_parse.64932adb-cgu.2.rcgu.o:(.text._ZN4core3str5count14do_count_chars17h9628697d4c055238E)
    daf9     daf9      342     1                 core::str::count::do_count_chars::h9628697d4c055238
    de3b     de3b      a6a     1         /workspaces/mos-hardware/target/mos-mega65-none/release/examples/11_parse-6e530e5be16e61ac.11_parse.64932adb-cgu.2.rcgu.o:(.text._ZN4core3str7pattern11StrSearcher3new17h98bc6b2cb960a91fE)
    de3b     de3b      a6a     1                 core::str::pattern::StrSearcher::new::h98bc6b2cb960a91f
    e8a5     e8a5      28e     1         /workspaces/mos-hardware/target/mos-mega65-none/release/examples/11_parse-6e530e5be16e61ac.11_parse.64932adb-cgu.2.rcgu.o:(.text._ZN4core3str7pattern14TwoWaySearcher22reverse_maximal_suffix17h6b6f6fbcd4420335E)
    e8a5     e8a5      28e     1                 core::str::pattern::TwoWaySearcher::reverse_maximal_suffix::h6b6f6fbcd4420335
    eb33     eb33        a     1         /workspaces/mos-hardware/target/mos-mega65-none/release/examples/11_parse-6e530e5be16e61ac.11_parse.64932adb-cgu.2.rcgu.o:(.text._ZN4core3ops8function6FnOnce9call_once17ha16be1346344ef06E)
    eb33     eb33        a     1                 core::ops::function::FnOnce::call_once::ha16be1346344ef06
    eb3d     eb3d      799     1         /workspaces/mos-hardware/target/mos-mega65-none/release/examples/11_parse-6e530e5be16e61ac.11_parse.64932adb-cgu.2.rcgu.o:(.text._ZN4core3fmt5write17h5a1d9760cc0c732cE)
    eb3d     eb3d      799     1                 core::fmt::write::h5a1d9760cc0c732c
    f2d6     f2d6       9a     1         /workspaces/mos-hardware/target/mos-mega65-none/release/examples/11_parse-6e530e5be16e61ac.11_parse.64932adb-cgu.2.rcgu.o:(.text._ZN4core3fmt8getcount17h3b855b2b02d22e67E)
    f2d6     f2d6       9a     1                 core::fmt::getcount::h3b855b2b02d22e67
    f370     f370      749     1         /workspaces/mos-hardware/target/mos-mega65-none/release/examples/11_parse-6e530e5be16e61ac.11_parse.64932adb-cgu.2.rcgu.o:(.text._ZN4core3fmt9Formatter12pad_integral17h68fdeccb2423ae8aE)
    f370     f370      749     1                 core::fmt::Formatter::pad_integral::h68fdeccb2423ae8a
    fab9     fab9      135     1         /workspaces/mos-hardware/target/mos-mega65-none/release/examples/11_parse-6e530e5be16e61ac.11_parse.64932adb-cgu.2.rcgu.o:(.text._ZN4core3fmt9Formatter12pad_integral12write_prefix17h5027f1c12a8cb372E)
    fab9     fab9      135     1                 core::fmt::Formatter::pad_integral::write_prefix::h5027f1c12a8cb372
    fbee     fbee      1cf     1         /workspaces/mos-hardware/target/mos-mega65-none/release/examples/11_parse-6e530e5be16e61ac.11_parse.64932adb-cgu.2.rcgu.o:(.text._ZN4core3fmt9Formatter7padding17h47364ce622b9b6cfE)
    fbee     fbee      1cf     1                 core::fmt::Formatter::padding::h47364ce622b9b6cf
    fdbd     fdbd      7f2     1         /workspaces/mos-hardware/target/mos-mega65-none/release/examples/11_parse-6e530e5be16e61ac.11_parse.64932adb-cgu.2.rcgu.o:(.text._ZN4core3fmt9Formatter3pad17h80198b29fa8b0b1bE)
    fdbd     fdbd      7f2     1                 core::fmt::Formatter::pad::h80198b29fa8b0b1b
   105af    105af       56     1         /workspaces/mos-hardware/target/mos-mega65-none/release/examples/11_parse-6e530e5be16e61ac.11_parse.64932adb-cgu.2.rcgu.o:(.text._ZN53_$LT$core..fmt..Error$u20$as$u20$core..fmt..Debug$GT$3fmt17h240726339ae730a0E)
   105af    105af       56     1                 _$LT$core..fmt..Error$u20$as$u20$core..fmt..Debug$GT$::fmt::h240726339ae730a0
   10605    10605      330     1         /workspaces/mos-hardware/target/mos-mega65-none/release/examples/11_parse-6e530e5be16e61ac.11_parse.64932adb-cgu.2.rcgu.o:(.text._ZN4core5slice6memchr14memchr_aligned17hc123f142911889a1E)
   10605    10605      330     1                 core::slice::memchr::memchr_aligned::hc123f142911889a1
   10935    10935        3     1         /workspaces/mos-hardware/target/mos-mega65-none/release/examples/11_parse-6e530e5be16e61ac.11_parse.64932adb-cgu.2.rcgu.o:(.text.unlikely._ZN4core5slice5index22slice_index_order_fail17h0632d32cf138adadE)
   10935    10935        3     1                 core::slice::index::slice_index_order_fail::h0632d32cf138adad
   10938    10938        3     1         /workspaces/mos-hardware/target/mos-mega65-none/release/examples/11_parse-6e530e5be16e61ac.11_parse.64932adb-cgu.2.rcgu.o:(.text._ZN4core5slice5index25slice_index_order_fail_rt17h06ce0ea1fc50989fE)
   10938    10938        3     1                 core::slice::index::slice_index_order_fail_rt::h06ce0ea1fc50989f
   1093b    1093b        3     1         /workspaces/mos-hardware/target/mos-mega65-none/release/examples/11_parse-6e530e5be16e61ac.11_parse.64932adb-cgu.2.rcgu.o:(.text.unlikely._ZN4core3str16slice_error_fail17h9ea9334885a6ae05E)
   1093b    1093b        3     1                 core::str::slice_error_fail::h9ea9334885a6ae05
   1093e    1093e      39f     1         /workspaces/mos-hardware/target/mos-mega65-none/release/examples/11_parse-6e530e5be16e61ac.11_parse.64932adb-cgu.2.rcgu.o:(.text._ZN4core3str19slice_error_fail_rt17h28a2e7863e786981E)
   1093e    1093e      39f     1                 core::str::slice_error_fail_rt::h28a2e7863e786981
   10cdd    10cdd        1     1         /workspaces/mos-hardware/target/mos-mega65-none/release/examples/11_parse-6e530e5be16e61ac.11_parse.64932adb-cgu.2.rcgu.o:(.text._ZN4core3ptr102drop_in_place$LT$$RF$core..iter..adapters..copied..Copied$LT$core..slice..iter..Iter$LT$u8$GT$$GT$$GT$17hc5c83a8e75e85116E)
   10cdd    10cdd        1     1                 core::ptr::drop_in_place$LT$$RF$core..iter..adapters..copied..Copied$LT$core..slice..iter..Iter$LT$u8$GT$$GT$$GT$::hc5c83a8e75e85116
   10cde    10cde      85f     1         /workspaces/mos-hardware/target/mos-mega65-none/release/examples/11_parse-6e530e5be16e61ac.11_parse.64932adb-cgu.2.rcgu.o:(.text._ZN68_$LT$core..fmt..builders..PadAdapter$u20$as$u20$core..fmt..Write$GT$9write_str17h5ccab4fbddfc6db7E)
   10cde    10cde      85f     1                 _$LT$core..fmt..builders..PadAdapter$u20$as$u20$core..fmt..Write$GT$::write_str::h5ccab4fbddfc6db7
   1153d    1153d      1da     1         /workspaces/mos-hardware/target/mos-mega65-none/release/examples/11_parse-6e530e5be16e61ac.11_parse.64932adb-cgu.2.rcgu.o:(.text._ZN4core3fmt5Write10write_char17h09436c74c282de6fE)
   1153d    1153d      1da     1                 core::fmt::Write::write_char::h09436c74c282de6f
   11717    11717       80     1         /workspaces/mos-hardware/target/mos-mega65-none/release/examples/11_parse-6e530e5be16e61ac.11_parse.64932adb-cgu.2.rcgu.o:(.text._ZN4core3fmt5Write9write_fmt17hf509fbd4f4ac44b9E)
   11717    11717       80     1                 core::fmt::Write::write_fmt::hf509fbd4f4ac44b9
   11797    11797       18     1         /workspaces/mos-hardware/target/mos-mega65-none/release/examples/11_parse-6e530e5be16e61ac.11_parse.64932adb-cgu.2.rcgu.o:(.text._ZN50_$LT$$RF$mut$u20$W$u20$as$u20$core..fmt..Write$GT$9write_str17h2671b0e622866f2bE)
   11797    11797       18     1                 _$LT$$RF$mut$u20$W$u20$as$u20$core..fmt..Write$GT$::write_str::h2671b0e622866f2b
   117af    117af       18     1         /workspaces/mos-hardware/target/mos-mega65-none/release/examples/11_parse-6e530e5be16e61ac.11_parse.64932adb-cgu.2.rcgu.o:(.text._ZN50_$LT$$RF$mut$u20$W$u20$as$u20$core..fmt..Write$GT$10write_char17hd985fa282360a107E)
   117af    117af       18     1                 _$LT$$RF$mut$u20$W$u20$as$u20$core..fmt..Write$GT$::write_char::hd985fa282360a107
   117c7    117c7       80     1         /workspaces/mos-hardware/target/mos-mega65-none/release/examples/11_parse-6e530e5be16e61ac.11_parse.64932adb-cgu.2.rcgu.o:(.text._ZN50_$LT$$RF$mut$u20$W$u20$as$u20$core..fmt..Write$GT$9write_fmt17hd4babcc312486c3aE)
   117c7    117c7       80     1                 _$LT$$RF$mut$u20$W$u20$as$u20$core..fmt..Write$GT$::write_fmt::hd4babcc312486c3a
   11847    11847      331     1         /workspaces/mos-hardware/target/mos-mega65-none/release/examples/11_parse-6e530e5be16e61ac.11_parse.64932adb-cgu.2.rcgu.o:(.text._ZN68_$LT$core..num..error..ParseIntError$u20$as$u20$core..fmt..Debug$GT$3fmt17h2822a4d0b75a8b89E)
   11847    11847      331     1                 _$LT$core..num..error..ParseIntError$u20$as$u20$core..fmt..Debug$GT$::fmt::h2822a4d0b75a8b89
   11b78    11b78       ef     1         /workspaces/mos-hardware/target/mos-mega65-none/release/examples/11_parse-6e530e5be16e61ac.11_parse.64932adb-cgu.2.rcgu.o:(.text._ZN42_$LT$$RF$T$u20$as$u20$core..fmt..Debug$GT$3fmt17h5593ea74c8aa67e2E)
   11b78    11b78       ef     1                 _$LT$$RF$T$u20$as$u20$core..fmt..Debug$GT$::fmt::h5593ea74c8aa67e2
   11c67    11c67        3     1         /workspaces/mos-hardware/target/mos-mega65-none/release/examples/11_parse-6e530e5be16e61ac.11_parse.64932adb-cgu.2.rcgu.o:(.text.__rg_alloc)
   11c67    11c67        3     1                 __rg_alloc
   11c6a    11c6a        3     1         /workspaces/mos-hardware/target/mos-mega65-none/release/examples/11_parse-6e530e5be16e61ac.11_parse.64932adb-cgu.2.rcgu.o:(.text.__rg_dealloc)
   11c6a    11c6a        3     1                 __rg_dealloc
   11c6d    11c6d        3     1         /workspaces/mos-hardware/target/mos-mega65-none/release/examples/11_parse-6e530e5be16e61ac.11_parse.64932adb-cgu.2.rcgu.o:(.text.__rg_realloc)
   11c6d    11c6d        3     1                 __rg_realloc
   11c70    11c70       45     1         /workspaces/mos-hardware/target/mos-mega65-none/release/examples/11_parse-6e530e5be16e61ac.11_parse.64932adb-cgu.2.rcgu.o:(.text._ZN12mos_hardware6mega655lpeek17h79704ea730c8bdcaE)
   11c70    11c70       45     1                 mos_hardware::mega65::lpeek::h79704ea730c8bdca
   11cb5    11cb5       45     1         /workspaces/mos-hardware/target/mos-mega65-none/release/examples/11_parse-6e530e5be16e61ac.11_parse.64932adb-cgu.2.rcgu.o:(.text._ZN12mos_hardware6mega655lpoke17h16d9c848bcc1f8a4E)
   11cb5    11cb5       45     1                 mos_hardware::mega65::lpoke::h16d9c848bcc1f8a4
   11cfa    11cfa        a     1         /usr/local/bin/../mos-platform/commodore/lib/libcrt0.a(exit-return.c.obj):(.text)
   11cfa    11cfa        a     1                 __exit_return
   11d04    11d04        3     1         /usr/local/bin/../mos-platform/common/lib/libcrt.a(call-indir.S.obj):(.text)
   11d04    11d04        0     1                 __call_indir
   11d07    11d07     112d     1         /usr/local/bin/../mos-platform/common/lib/libcrt.a(divmod-large.cc.obj):(.text)
   11d07    11d07      1ce     1                 __udivmodsi4
   11ed5    11ed5      472     1                 __udivmoddi4
   12347    12347      316     1                 __divmodsi4
   1265d    1265d      7d7     1                 __divmoddi4
   12e34    12e34       13     1         /usr/local/bin/../mos-platform/commodore/lib/libcrt0.a(zero-bss.c.obj):(.text)
   12e34    12e34       13     1                 __zero_bss
   12e47    12e47        e     1         lto.tmp:(.text.setlowercase)
   12e47    12e47        e     1                 setlowercase
   12e55    12e55       95     1         lto.tmp:(.text.lpeek)
   12e55    12e55       95     1                 lpeek
   12eea    12eea       9b     1         lto.tmp:(.text.lpoke)
   12eea    12eea       9b     1                 lpoke
   12f85    12f85        5     1         lto.tmp:(.text.mega65_fast)
   12f85    12f85        5     1                 mega65_fast
   12f8a    12f8a       ba     1         lto.tmp:(.text.__udivhi3)
   12f8a    12f8a       ba     1                 __udivhi3
   13044    13044       a0     1         lto.tmp:(.text.__umodhi3)
   13044    13044       a0     1                 __umodhi3
   130e4    130e4       da     1         lto.tmp:(.text.__udivmodhi4)
   130e4    130e4       da     1                 __udivmodhi4
   131be    131be       32     1         lto.tmp:(.text.__mulhi3)
   131be    131be       32     1                 __mulhi3
   131f0    131f0       70     1         lto.tmp:(.text.__mulsi3)
   131f0    131f0       70     1                 __mulsi3
   13260    13260       13     1         lto.tmp:(.text.__ashlhi3)
   13260    13260       13     1                 __ashlhi3
   13273    13273       1f     1         lto.tmp:(.text.__ashldi3)
   13273    13273       1f     1                 __ashldi3
   13292    13292        e     1         lto.tmp:(.text.putchar)
   13292    13292        e     1                 putchar
   132a0    132a0       76     1         lto.tmp:(.text.malloc)
   132a0    132a0       76     1                 malloc
   13316    13316       65     1         lto.tmp:(.text._ZN12_GLOBAL__N_113get_free_listEv)
   13316    13316       65     1                 (anonymous namespace)::get_free_list()
   1337b    1337b      222     1         lto.tmp:(.text.realloc)
   1337b    1337b      222     1                 realloc
   1359d    1359d      2bf     1         lto.tmp:(.text.free)
   1359d    1359d      2bf     1                 free
   1385c    1385c       46     1         lto.tmp:(.text.memcmp)
   1385c    1385c       46     1                 memcmp
   138a2    138a2       34     1         lto.tmp:(.text.memcpy)
   138a2    138a2       34     1                 memcpy
   138d6    138d6       23     1         lto.tmp:(.text.__memset)
   138d6    138d6       23     1                 __memset
   138f9    138f9       98     1         lto.tmp:(.text.memmove)
   138f9    138f9       98     1                 memmove
   13991    13991        0     1         __init_array_start = .
   13991    13991        0     1         __init_array_end = .
   13991    13991        0     1         __fini_array_start = .
   13991    13991        0     1         __fini_array_end = .
   13991    13991      411     1 .rodata
   13991    13991        8     1         /workspaces/mos-hardware/target/mos-mega65-none/release/examples/11_parse-6e530e5be16e61ac.11_parse.64932adb-cgu.2.rcgu.o:(.rodata._ZN4core3fmt9Formatter7padding17h47364ce622b9b6cfE)
   13999    13999        a     1         /workspaces/mos-hardware/target/mos-mega65-none/release/examples/11_parse-6e530e5be16e61ac.11_parse.64932adb-cgu.2.rcgu.o:(.rodata._ZN42_$LT$$RF$T$u20$as$u20$core..fmt..Debug$GT$3fmt17h5593ea74c8aa67e2E)
   139a3    139a3       37     1         /workspaces/mos-hardware/target/mos-mega65-none/release/examples/11_parse-6e530e5be16e61ac.11_parse.64932adb-cgu.2.rcgu.o:(.rodata..Lanon.82585a2cba6af83290cfbb5e2bd36c75.1)
   139da    139da       2b     1         /workspaces/mos-hardware/target/mos-mega65-none/release/examples/11_parse-6e530e5be16e61ac.11_parse.64932adb-cgu.2.rcgu.o:(.rodata..Lanon.82585a2cba6af83290cfbb5e2bd36c75.11)
   13a05    13a05       2b     1         /workspaces/mos-hardware/target/mos-mega65-none/release/examples/11_parse-6e530e5be16e61ac.11_parse.64932adb-cgu.2.rcgu.o:(.rodata..Lanon.82585a2cba6af83290cfbb5e2bd36c75.13)
   13a30    13a30        1     1         /workspaces/mos-hardware/target/mos-mega65-none/release/examples/11_parse-6e530e5be16e61ac.11_parse.64932adb-cgu.2.rcgu.o:(.rodata..Lanon.82585a2cba6af83290cfbb5e2bd36c75.17)
   13a31    13a31        2     1         /workspaces/mos-hardware/target/mos-mega65-none/release/examples/11_parse-6e530e5be16e61ac.11_parse.64932adb-cgu.2.rcgu.o:(.rodata..Lanon.82585a2cba6af83290cfbb5e2bd36c75.19)
   13a33    13a33       14     1         /workspaces/mos-hardware/target/mos-mega65-none/release/examples/11_parse-6e530e5be16e61ac.11_parse.64932adb-cgu.2.rcgu.o:(.rodata..Lanon.82585a2cba6af83290cfbb5e2bd36c75.21)
   13a47    13a47       1c     1         <internal>:(.rodata)
   13a63    13a63        1     1         /workspaces/mos-hardware/target/mos-mega65-none/release/examples/11_parse-6e530e5be16e61ac.11_parse.64932adb-cgu.2.rcgu.o:(.rodata..Lanon.82585a2cba6af83290cfbb5e2bd36c75.24)
   13a64    13a64        1     1         /workspaces/mos-hardware/target/mos-mega65-none/release/examples/11_parse-6e530e5be16e61ac.11_parse.64932adb-cgu.2.rcgu.o:(.rodata..Lanon.82585a2cba6af83290cfbb5e2bd36c75.26)
   13a65    13a65        5     1         /workspaces/mos-hardware/target/mos-mega65-none/release/examples/11_parse-6e530e5be16e61ac.11_parse.64932adb-cgu.2.rcgu.o:(.rodata..Lanon.82585a2cba6af83290cfbb5e2bd36c75.27)
   13a6a    13a6a        5     1         /workspaces/mos-hardware/target/mos-mega65-none/release/examples/11_parse-6e530e5be16e61ac.11_parse.64932adb-cgu.2.rcgu.o:(.rodata..Lanon.82585a2cba6af83290cfbb5e2bd36c75.28)
   13a6f    13a6f        6     1         /workspaces/mos-hardware/target/mos-mega65-none/release/examples/11_parse-6e530e5be16e61ac.11_parse.64932adb-cgu.2.rcgu.o:(.rodata..Lanon.82585a2cba6af83290cfbb5e2bd36c75.29)
   13a75    13a75        7     1         /workspaces/mos-hardware/target/mos-mega65-none/release/examples/11_parse-6e530e5be16e61ac.11_parse.64932adb-cgu.2.rcgu.o:(.rodata..Lanon.82585a2cba6af83290cfbb5e2bd36c75.30)
   13a7c    13a7c        2     1         /workspaces/mos-hardware/target/mos-mega65-none/release/examples/11_parse-6e530e5be16e61ac.11_parse.64932adb-cgu.2.rcgu.o:(.rodata..Lanon.82585a2cba6af83290cfbb5e2bd36c75.34)
   13a7e    13a7e        1     1         /workspaces/mos-hardware/target/mos-mega65-none/release/examples/11_parse-6e530e5be16e61ac.11_parse.64932adb-cgu.2.rcgu.o:(.rodata..Lanon.82585a2cba6af83290cfbb5e2bd36c75.36)
   13a7f    13a7f        1     1         /workspaces/mos-hardware/target/mos-mega65-none/release/examples/11_parse-6e530e5be16e61ac.11_parse.64932adb-cgu.2.rcgu.o:(.rodata..Lanon.82585a2cba6af83290cfbb5e2bd36c75.38)
   13a80    13a80        3     1         /workspaces/mos-hardware/target/mos-mega65-none/release/examples/11_parse-6e530e5be16e61ac.11_parse.64932adb-cgu.2.rcgu.o:(.rodata..Lanon.82585a2cba6af83290cfbb5e2bd36c75.42)
   13a83    13a83        1     1         /workspaces/mos-hardware/target/mos-mega65-none/release/examples/11_parse-6e530e5be16e61ac.11_parse.64932adb-cgu.2.rcgu.o:(.rodata..Lanon.82585a2cba6af83290cfbb5e2bd36c75.43)
   13a84    13a84        1     1         /workspaces/mos-hardware/target/mos-mega65-none/release/examples/11_parse-6e530e5be16e61ac.11_parse.64932adb-cgu.2.rcgu.o:(.rodata..Lanon.82585a2cba6af83290cfbb5e2bd36c75.46)
   13a85    13a85        2     1         /workspaces/mos-hardware/target/mos-mega65-none/release/examples/11_parse-6e530e5be16e61ac.11_parse.64932adb-cgu.2.rcgu.o:(.rodata..Lanon.82585a2cba6af83290cfbb5e2bd36c75.47)
   13a87    13a87        1     1         /workspaces/mos-hardware/target/mos-mega65-none/release/examples/11_parse-6e530e5be16e61ac.11_parse.64932adb-cgu.2.rcgu.o:(.rodata..Lanon.82585a2cba6af83290cfbb5e2bd36c75.49)
   13a88    13a88        1     1         /workspaces/mos-hardware/target/mos-mega65-none/release/examples/11_parse-6e530e5be16e61ac.11_parse.64932adb-cgu.2.rcgu.o:(.rodata..Lanon.82585a2cba6af83290cfbb5e2bd36c75.50)
   13a89    13a89        2     1         /workspaces/mos-hardware/target/mos-mega65-none/release/examples/11_parse-6e530e5be16e61ac.11_parse.64932adb-cgu.2.rcgu.o:(.rodata..Lanon.82585a2cba6af83290cfbb5e2bd36c75.53)
   13a8b    13a8b        1     1         /workspaces/mos-hardware/target/mos-mega65-none/release/examples/11_parse-6e530e5be16e61ac.11_parse.64932adb-cgu.2.rcgu.o:(.rodata..Lanon.82585a2cba6af83290cfbb5e2bd36c75.56)
   13a8c    13a8c        1     1         /workspaces/mos-hardware/target/mos-mega65-none/release/examples/11_parse-6e530e5be16e61ac.11_parse.64932adb-cgu.2.rcgu.o:(.rodata..Lanon.82585a2cba6af83290cfbb5e2bd36c75.57)
   13a8d    13a8d       20     1         <internal>:(.rodata)
   13aad    13aad        1     1         /workspaces/mos-hardware/target/mos-mega65-none/release/examples/11_parse-6e530e5be16e61ac.11_parse.64932adb-cgu.2.rcgu.o:(.rodata..Lanon.82585a2cba6af83290cfbb5e2bd36c75.62)
   13aae    13aae        f     1         /workspaces/mos-hardware/target/mos-mega65-none/release/examples/11_parse-6e530e5be16e61ac.11_parse.64932adb-cgu.2.rcgu.o:(.rodata..Lanon.82585a2cba6af83290cfbb5e2bd36c75.76)
   13abd    13abd        a     1         /workspaces/mos-hardware/target/mos-mega65-none/release/examples/11_parse-6e530e5be16e61ac.11_parse.64932adb-cgu.2.rcgu.o:(.rodata..Lanon.82585a2cba6af83290cfbb5e2bd36c75.77)
   13ac7    13ac7        b     1         /workspaces/mos-hardware/target/mos-mega65-none/release/examples/11_parse-6e530e5be16e61ac.11_parse.64932adb-cgu.2.rcgu.o:(.rodata..Lanon.82585a2cba6af83290cfbb5e2bd36c75.78)
   13ad2    13ad2       30     1         <internal>:(.rodata)
   13b02    13b02        9     1         /workspaces/mos-hardware/target/mos-mega65-none/release/examples/11_parse-6e530e5be16e61ac.11_parse.64932adb-cgu.2.rcgu.o:(.rodata..Lanon.82585a2cba6af83290cfbb5e2bd36c75.80)
   13b0b    13b0b        6     1         /workspaces/mos-hardware/target/mos-mega65-none/release/examples/11_parse-6e530e5be16e61ac.11_parse.64932adb-cgu.2.rcgu.o:(.rodata..Lanon.82585a2cba6af83290cfbb5e2bd36c75.81)
   13b11    13b11       1a     1         /workspaces/mos-hardware/target/mos-mega65-none/release/examples/11_parse-6e530e5be16e61ac.11_parse.64932adb-cgu.2.rcgu.o:(.rodata..Lanon.6ed655b157d6a253c1f48cca3ca17c2c.0)
   13b2b    13b2b        1     1         /workspaces/mos-hardware/target/mos-mega65-none/release/examples/11_parse-6e530e5be16e61ac.11_parse.64932adb-cgu.2.rcgu.o:(.rodata..Lanon.6ed655b157d6a253c1f48cca3ca17c2c.1)
   13b2c    13b2c        1     1         /workspaces/mos-hardware/target/mos-mega65-none/release/examples/11_parse-6e530e5be16e61ac.11_parse.64932adb-cgu.2.rcgu.o:(.rodata..Lanon.6ed655b157d6a253c1f48cca3ca17c2c.3)
   13b2d    13b2d        3     1         /workspaces/mos-hardware/target/mos-mega65-none/release/examples/11_parse-6e530e5be16e61ac.11_parse.64932adb-cgu.2.rcgu.o:(.rodata..Lanon.6ed655b157d6a253c1f48cca3ca17c2c.5)
   13b30    13b30        1     1         /workspaces/mos-hardware/target/mos-mega65-none/release/examples/11_parse-6e530e5be16e61ac.11_parse.64932adb-cgu.2.rcgu.o:(.rodata..Lanon.6ed655b157d6a253c1f48cca3ca17c2c.6)
   13b31    13b31        5     1         /workspaces/mos-hardware/target/mos-mega65-none/release/examples/11_parse-6e530e5be16e61ac.11_parse.64932adb-cgu.2.rcgu.o:(.rodata..Lanon.6ed655b157d6a253c1f48cca3ca17c2c.7)
   13b36    13b36        b     1         /workspaces/mos-hardware/target/mos-mega65-none/release/examples/11_parse-6e530e5be16e61ac.11_parse.64932adb-cgu.2.rcgu.o:(.rodata..Lanon.6ed655b157d6a253c1f48cca3ca17c2c.8)
   13b41    13b41        c     1         /workspaces/mos-hardware/target/mos-mega65-none/release/examples/11_parse-6e530e5be16e61ac.11_parse.64932adb-cgu.2.rcgu.o:(.rodata..Lanon.6ed655b157d6a253c1f48cca3ca17c2c.9)
   13b4d    13b4d        9     1         /workspaces/mos-hardware/target/mos-mega65-none/release/examples/11_parse-6e530e5be16e61ac.11_parse.64932adb-cgu.2.rcgu.o:(.rodata..Lanon.6ed655b157d6a253c1f48cca3ca17c2c.10)
   13b56    13b56       27     1         /workspaces/mos-hardware/target/mos-mega65-none/release/examples/11_parse-6e530e5be16e61ac.11_parse.64932adb-cgu.2.rcgu.o:(.rodata..Lanon.6ed655b157d6a253c1f48cca3ca17c2c.11)
   13b7d    13b7d        d     1         /workspaces/mos-hardware/target/mos-mega65-none/release/examples/11_parse-6e530e5be16e61ac.11_parse.64932adb-cgu.2.rcgu.o:(.rodata..Lanon.6ed655b157d6a253c1f48cca3ca17c2c.12)
   13b8a    13b8a        9     1         /workspaces/mos-hardware/target/mos-mega65-none/release/examples/11_parse-6e530e5be16e61ac.11_parse.64932adb-cgu.2.rcgu.o:(.rodata..Lanon.6ed655b157d6a253c1f48cca3ca17c2c.16)
   13b93    13b93        6     1         /workspaces/mos-hardware/target/mos-mega65-none/release/examples/11_parse-6e530e5be16e61ac.11_parse.64932adb-cgu.2.rcgu.o:(.rodata..Lanon.6ed655b157d6a253c1f48cca3ca17c2c.19)
   13b99    13b99        c     1         /workspaces/mos-hardware/target/mos-mega65-none/release/examples/11_parse-6e530e5be16e61ac.11_parse.64932adb-cgu.2.rcgu.o:(.rodata..Lanon.6ed655b157d6a253c1f48cca3ca17c2c.20)
   13ba5    13ba5        d     1         /workspaces/mos-hardware/target/mos-mega65-none/release/examples/11_parse-6e530e5be16e61ac.11_parse.64932adb-cgu.2.rcgu.o:(.rodata..Lanon.6ed655b157d6a253c1f48cca3ca17c2c.21)
   13bb2    13bb2        a     1         /workspaces/mos-hardware/target/mos-mega65-none/release/examples/11_parse-6e530e5be16e61ac.11_parse.64932adb-cgu.2.rcgu.o:(.rodata..Lanon.6ed655b157d6a253c1f48cca3ca17c2c.23)
   13bbc    13bbc        1     1         /workspaces/mos-hardware/target/mos-mega65-none/release/examples/11_parse-6e530e5be16e61ac.11_parse.64932adb-cgu.2.rcgu.o:(.rodata..Lanon.6ed655b157d6a253c1f48cca3ca17c2c.24)
   13bbd    13bbd       33     1         /workspaces/mos-hardware/target/mos-mega65-none/release/examples/11_parse-6e530e5be16e61ac.11_parse.64932adb-cgu.2.rcgu.o:(.rodata..Lanon.28d91bc81da07c14834a9958e5de936d.6)
   13bf0    13bf0        1     1         /workspaces/mos-hardware/target/mos-mega65-none/release/examples/11_parse-6e530e5be16e61ac.11_parse.64932adb-cgu.2.rcgu.o:(.rodata..Lanon.ba57276fa98b079bfafb4d4b5308356c.2)
   13bf1    13bf1       c8     1         /workspaces/mos-hardware/target/mos-mega65-none/release/examples/11_parse-6e530e5be16e61ac.11_parse.64932adb-cgu.2.rcgu.o:(.rodata..Lanon.2651f430bf806bc54cfc42a3b4a77135.5)
   13cb9    13cb9        5     1         /workspaces/mos-hardware/target/mos-mega65-none/release/examples/11_parse-6e530e5be16e61ac.11_parse.64932adb-cgu.2.rcgu.o:(.rodata..Lanon.0fc332d2464afbeea29f025e11daa8d3.20)
   13cbe    13cbe       2b     1         /workspaces/mos-hardware/target/mos-mega65-none/release/examples/11_parse-6e530e5be16e61ac.11_parse.64932adb-cgu.2.rcgu.o:(.rodata..Lanon.cb2a1f5e004784be40d62e9499e7976e.5)
   13ce9    13ce9        0     1         /workspaces/mos-hardware/target/mos-mega65-none/release/examples/11_parse-6e530e5be16e61ac.11_parse.64932adb-cgu.2.rcgu.o:(.rodata..Lanon.cb2a1f5e004784be40d62e9499e7976e.6)
   13ce9    13ce9        3     1         /workspaces/mos-hardware/target/mos-mega65-none/release/examples/11_parse-6e530e5be16e61ac.11_parse.64932adb-cgu.2.rcgu.o:(.rodata..Lanon.2c2427d9c5da1661cea7a548946e1a15.16)
   13cec    13cec        2     1         /workspaces/mos-hardware/target/mos-mega65-none/release/examples/11_parse-6e530e5be16e61ac.11_parse.64932adb-cgu.2.rcgu.o:(.rodata..Lanon.2c2427d9c5da1661cea7a548946e1a15.17)
   13cee    13cee        2     1         /workspaces/mos-hardware/target/mos-mega65-none/release/examples/11_parse-6e530e5be16e61ac.11_parse.64932adb-cgu.2.rcgu.o:(.rodata..Lanon.2c2427d9c5da1661cea7a548946e1a15.18)
   13cf0    13cf0        3     1         /workspaces/mos-hardware/target/mos-mega65-none/release/examples/11_parse-6e530e5be16e61ac.11_parse.64932adb-cgu.2.rcgu.o:(.rodata..Lanon.2c2427d9c5da1661cea7a548946e1a15.20)
   13cf3    13cf3        1     1         /workspaces/mos-hardware/target/mos-mega65-none/release/examples/11_parse-6e530e5be16e61ac.11_parse.64932adb-cgu.2.rcgu.o:(.rodata..Lanon.2c2427d9c5da1661cea7a548946e1a15.22)
   13cf4    13cf4        2     1         /workspaces/mos-hardware/target/mos-mega65-none/release/examples/11_parse-6e530e5be16e61ac.11_parse.64932adb-cgu.2.rcgu.o:(.rodata..Lanon.2c2427d9c5da1661cea7a548946e1a15.25)
   13cf6    13cf6       48     1         /workspaces/mos-hardware/target/mos-mega65-none/release/examples/11_parse-6e530e5be16e61ac.11_parse.64932adb-cgu.2.rcgu.o:(.rodata..Lanon.2c2427d9c5da1661cea7a548946e1a15.62)
   13d3e    13d3e        d     1         /workspaces/mos-hardware/target/mos-mega65-none/release/examples/11_parse-6e530e5be16e61ac.11_parse.64932adb-cgu.2.rcgu.o:(.rodata..Lanon.2c2427d9c5da1661cea7a548946e1a15.101)
   13d4b    13d4b        b     1         /workspaces/mos-hardware/target/mos-mega65-none/release/examples/11_parse-6e530e5be16e61ac.11_parse.64932adb-cgu.2.rcgu.o:(.rodata..Lanon.2c2427d9c5da1661cea7a548946e1a15.105)
   13d56    13d56        b     1         /workspaces/mos-hardware/target/mos-mega65-none/release/examples/11_parse-6e530e5be16e61ac.11_parse.64932adb-cgu.2.rcgu.o:(.rodata..Lanon.2c2427d9c5da1661cea7a548946e1a15.106)
   13d61    13d61        c     1         /workspaces/mos-hardware/target/mos-mega65-none/release/examples/11_parse-6e530e5be16e61ac.11_parse.64932adb-cgu.2.rcgu.o:(.rodata..Lanon.2c2427d9c5da1661cea7a548946e1a15.107)
   13d6d    13d6d        5     1         /workspaces/mos-hardware/target/mos-mega65-none/release/examples/11_parse-6e530e5be16e61ac.11_parse.64932adb-cgu.2.rcgu.o:(.rodata..Lanon.2c2427d9c5da1661cea7a548946e1a15.108)
   13d72    13d72       2f     1         /workspaces/mos-hardware/target/mos-mega65-none/release/examples/11_parse-6e530e5be16e61ac.11_parse.64932adb-cgu.2.rcgu.o:(.rodata..Lanon.575b8699a8e694bb68c49652a5d1c54e.1)
   13da1    13da1        1     1         /usr/local/bin/../mos-platform/common/lib/libcrt.a(const.S.obj):(.rodata)
   13da1    13da1        0     1                 __set_v
   13da2    13da2      166     2 .data
   13da2    13da2        0     1         __data_start = .
   13da2    13da2        2     2         lto.tmp:(.data._ZN12_GLOBAL__N_19blocklist12m_heap_limitE)
   13da2    13da2        2     1                 (anonymous namespace)::blocklist::m_heap_limit
   13da4    13da4        c     1         /workspaces/mos-hardware/target/mos-mega65-none/release/examples/11_parse-6e530e5be16e61ac.11_parse.64932adb-cgu.2.rcgu.o:(.data.rel.ro..Lanon.82585a2cba6af83290cfbb5e2bd36c75.0)
   13db0    13db0        8     1         /workspaces/mos-hardware/target/mos-mega65-none/release/examples/11_parse-6e530e5be16e61ac.11_parse.64932adb-cgu.2.rcgu.o:(.data.rel.ro..Lanon.82585a2cba6af83290cfbb5e2bd36c75.10)
   13db8    13db8        8     1         /workspaces/mos-hardware/target/mos-mega65-none/release/examples/11_parse-6e530e5be16e61ac.11_parse.64932adb-cgu.2.rcgu.o:(.data.rel.ro..Lanon.82585a2cba6af83290cfbb5e2bd36c75.12)
   13dc0    13dc0        c     1         /workspaces/mos-hardware/target/mos-mega65-none/release/examples/11_parse-6e530e5be16e61ac.11_parse.64932adb-cgu.2.rcgu.o:(.data.rel.ro..Lanon.82585a2cba6af83290cfbb5e2bd36c75.15)
   13dcc    13dcc        c     1         /workspaces/mos-hardware/target/mos-mega65-none/release/examples/11_parse-6e530e5be16e61ac.11_parse.64932adb-cgu.2.rcgu.o:(.data.rel.ro..Lanon.82585a2cba6af83290cfbb5e2bd36c75.23)
   13dd8    13dd8        c     1         /workspaces/mos-hardware/target/mos-mega65-none/release/examples/11_parse-6e530e5be16e61ac.11_parse.64932adb-cgu.2.rcgu.o:(.data.rel.ro..Lanon.82585a2cba6af83290cfbb5e2bd36c75.25)
   13de4    13de4        c     1         /workspaces/mos-hardware/target/mos-mega65-none/release/examples/11_parse-6e530e5be16e61ac.11_parse.64932adb-cgu.2.rcgu.o:(.data.rel.ro..Lanon.82585a2cba6af83290cfbb5e2bd36c75.31)
   13df0    13df0        c     1         /workspaces/mos-hardware/target/mos-mega65-none/release/examples/11_parse-6e530e5be16e61ac.11_parse.64932adb-cgu.2.rcgu.o:(.data.rel.ro..Lanon.82585a2cba6af83290cfbb5e2bd36c75.32)
   13dfc    13dfc        c     1         /workspaces/mos-hardware/target/mos-mega65-none/release/examples/11_parse-6e530e5be16e61ac.11_parse.64932adb-cgu.2.rcgu.o:(.data.rel.ro..Lanon.82585a2cba6af83290cfbb5e2bd36c75.33)
   13e08    13e08        c     1         /workspaces/mos-hardware/target/mos-mega65-none/release/examples/11_parse-6e530e5be16e61ac.11_parse.64932adb-cgu.2.rcgu.o:(.data.rel.ro..Lanon.82585a2cba6af83290cfbb5e2bd36c75.35)
   13e14    13e14        c     1         /workspaces/mos-hardware/target/mos-mega65-none/release/examples/11_parse-6e530e5be16e61ac.11_parse.64932adb-cgu.2.rcgu.o:(.data.rel.ro..Lanon.82585a2cba6af83290cfbb5e2bd36c75.37)
   13e20    13e20        c     1         /workspaces/mos-hardware/target/mos-mega65-none/release/examples/11_parse-6e530e5be16e61ac.11_parse.64932adb-cgu.2.rcgu.o:(.data.rel.ro..Lanon.82585a2cba6af83290cfbb5e2bd36c75.39)
   13e2c    13e2c        c     1         /workspaces/mos-hardware/target/mos-mega65-none/release/examples/11_parse-6e530e5be16e61ac.11_parse.64932adb-cgu.2.rcgu.o:(.data.rel.ro..Lanon.82585a2cba6af83290cfbb5e2bd36c75.40)
   13e38    13e38        c     1         /workspaces/mos-hardware/target/mos-mega65-none/release/examples/11_parse-6e530e5be16e61ac.11_parse.64932adb-cgu.2.rcgu.o:(.data.rel.ro..Lanon.82585a2cba6af83290cfbb5e2bd36c75.41)
   13e44    13e44       10     1         /workspaces/mos-hardware/target/mos-mega65-none/release/examples/11_parse-6e530e5be16e61ac.11_parse.64932adb-cgu.2.rcgu.o:(.data.rel.ro..Lanon.82585a2cba6af83290cfbb5e2bd36c75.48)
   13e54    13e54       10     1         /workspaces/mos-hardware/target/mos-mega65-none/release/examples/11_parse-6e530e5be16e61ac.11_parse.64932adb-cgu.2.rcgu.o:(.data.rel.ro..Lanon.82585a2cba6af83290cfbb5e2bd36c75.51)
   13e64    13e64        4     1         /workspaces/mos-hardware/target/mos-mega65-none/release/examples/11_parse-6e530e5be16e61ac.11_parse.64932adb-cgu.2.rcgu.o:(.data.rel.ro..Lanon.82585a2cba6af83290cfbb5e2bd36c75.54)
   13e68    13e68        8     1         /workspaces/mos-hardware/target/mos-mega65-none/release/examples/11_parse-6e530e5be16e61ac.11_parse.64932adb-cgu.2.rcgu.o:(.data.rel.ro..Lanon.82585a2cba6af83290cfbb5e2bd36c75.55)
   13e70    13e70        c     1         /workspaces/mos-hardware/target/mos-mega65-none/release/examples/11_parse-6e530e5be16e61ac.11_parse.64932adb-cgu.2.rcgu.o:(.data.rel.ro..Lanon.82585a2cba6af83290cfbb5e2bd36c75.58)
   13e7c    13e7c        c     1         /workspaces/mos-hardware/target/mos-mega65-none/release/examples/11_parse-6e530e5be16e61ac.11_parse.64932adb-cgu.2.rcgu.o:(.data.rel.ro..Lanon.82585a2cba6af83290cfbb5e2bd36c75.60)
   13e88    13e88        c     1         /workspaces/mos-hardware/target/mos-mega65-none/release/examples/11_parse-6e530e5be16e61ac.11_parse.64932adb-cgu.2.rcgu.o:(.data.rel.ro..Lanon.82585a2cba6af83290cfbb5e2bd36c75.71)
   13e94    13e94        c     1         /workspaces/mos-hardware/target/mos-mega65-none/release/examples/11_parse-6e530e5be16e61ac.11_parse.64932adb-cgu.2.rcgu.o:(.data.rel.ro..Lanon.82585a2cba6af83290cfbb5e2bd36c75.72)
   13ea0    13ea0        c     1         /workspaces/mos-hardware/target/mos-mega65-none/release/examples/11_parse-6e530e5be16e61ac.11_parse.64932adb-cgu.2.rcgu.o:(.data.rel.ro..Lanon.82585a2cba6af83290cfbb5e2bd36c75.73)
   13eac    13eac        c     1         /workspaces/mos-hardware/target/mos-mega65-none/release/examples/11_parse-6e530e5be16e61ac.11_parse.64932adb-cgu.2.rcgu.o:(.data.rel.ro..Lanon.82585a2cba6af83290cfbb5e2bd36c75.75)
   13eb8    13eb8       24     1         /workspaces/mos-hardware/target/mos-mega65-none/release/examples/11_parse-6e530e5be16e61ac.11_parse.64932adb-cgu.2.rcgu.o:(.data.rel.ro..Lanon.82585a2cba6af83290cfbb5e2bd36c75.83)
   13edc    13edc        c     1         /workspaces/mos-hardware/target/mos-mega65-none/release/examples/11_parse-6e530e5be16e61ac.11_parse.64932adb-cgu.2.rcgu.o:(.data.rel.ro..Lanon.73872bc9b53cdffdf9fa3a521b7c9b40.0)
   13ee8    13ee8        8     1         /workspaces/mos-hardware/target/mos-mega65-none/release/examples/11_parse-6e530e5be16e61ac.11_parse.64932adb-cgu.2.rcgu.o:(.data.rel.ro..Lanon.28d91bc81da07c14834a9958e5de936d.1)
   13ef0    13ef0        c     1         /workspaces/mos-hardware/target/mos-mega65-none/release/examples/11_parse-6e530e5be16e61ac.11_parse.64932adb-cgu.2.rcgu.o:(.data.rel.ro..Lanon.0fc332d2464afbeea29f025e11daa8d3.3)
   13efc    13efc        c     1         /workspaces/mos-hardware/target/mos-mega65-none/release/examples/11_parse-6e530e5be16e61ac.11_parse.64932adb-cgu.2.rcgu.o:(.data.rel.ro..Lanon.2c2427d9c5da1661cea7a548946e1a15.47)
   13f08    13f08        0     1         __data_end = .
   13f08    13f08        0     1 __data_load_start = LOADADDR ( .data )
   13f08    13f08        0     1 __data_size = SIZEOF ( .data )
   13f08    13f08       23     2 .bss
   13f08    13f08        0     1         __bss_start = .
   13f08    13f08        6     2         lto.tmp:(.bss._ZZN12_GLOBAL__N_113get_free_listEvE9free_list)
   13f08    13f08        6     1                 (anonymous namespace)::get_free_list()::free_list
   13f0e    13f0e       14     1         lto.tmp:(.bss.dmalist)
   13f0e    13f0e       14     1                 dmalist
   13f22    13f22        1     1         lto.tmp:(.bss.dma_byte)
   13f22    13f22        1     1                 dma_byte
   13f23    13f23        8     1         lto.tmp:(.bss._ZGVZN12_GLOBAL__N_113get_free_listEvE9free_list)
   13f23    13f23        8     1                 guard variable for (anonymous namespace)::get_free_list()::free_list
   13f2b    13f2b        0     1         __bss_end = .
   13f2b    13f2b        0     1 __bss_size = SIZEOF ( .bss )
   13f2b    13f2b        5     1 .noinit
   13f2b    13f2b        3     1         /workspaces/mos-hardware/target/mos-mega65-none/release/examples/11_parse-6e530e5be16e61ac.11_parse.64932adb-cgu.2.rcgu.o:(.noinit..Lstatic_stack)
   13f2e    13f2e        1     1         /usr/local/bin/../mos-platform/commodore/lib/libcrt0.a(exit-return.c.obj):(.noinit)
   13f2f    13f2f        1     1         /usr/local/bin/../mos-platform/commodore/lib/libcrt0.a(_exit.S.obj):(.noinit)
   13f2f    13f2f        0     1                 __save_s
   13f30    13f30        0     1         __heap_start = .
   13f30    13f30        0     1 __stack = 0x9fff
       0        0     6e03     1 .debug_loc
       0        0     6586     1         /workspaces/mos-hardware/target/mos-mega65-none/release/examples/11_parse-6e530e5be16e61ac.11_parse.64932adb-cgu.2.rcgu.o:(.debug_loc)
    6586     6586      87d     1         /workspaces/mos-hardware/target/mos-mega65-none/release/deps/libcompiler_builtins-d62120be29555e4d.rlib(compiler_builtins-d62120be29555e4d.compiler_builtins.feaf2b51-cgu.2.rcgu.o):(.debug_loc)
       0        0      d2f     1 .debug_abbrev
       0        0      86e     1         /workspaces/mos-hardware/target/mos-mega65-none/release/examples/11_parse-6e530e5be16e61ac.11_parse.64932adb-cgu.2.rcgu.o:(.debug_abbrev)
     86e      86e       58     1         /workspaces/mos-hardware/target/mos-mega65-none/release/deps/libcompiler_builtins-d62120be29555e4d.rlib(compiler_builtins-d62120be29555e4d.compiler_builtins.feaf2b51-cgu.0.rcgu.o):(.debug_abbrev)
     8c6      8c6      1a2     1         /workspaces/mos-hardware/target/mos-mega65-none/release/deps/libcompiler_builtins-d62120be29555e4d.rlib(compiler_builtins-d62120be29555e4d.compiler_builtins.feaf2b51-cgu.2.rcgu.o):(.debug_abbrev)
     a68      a68       56     1         /workspaces/mos-hardware/target/mos-mega65-none/release/deps/libcompiler_builtins-d62120be29555e4d.rlib(compiler_builtins-d62120be29555e4d.compiler_builtins.feaf2b51-cgu.3.rcgu.o):(.debug_abbrev)
     abe      abe       56     1         /workspaces/mos-hardware/target/mos-mega65-none/release/deps/libcompiler_builtins-d62120be29555e4d.rlib(compiler_builtins-d62120be29555e4d.compiler_builtins.feaf2b51-cgu.9.rcgu.o):(.debug_abbrev)
     b14      b14      21b     1         lto.tmp:(.debug_abbrev)
       0        0    24b5f     1 .debug_info
       0        0    22fe5     1         /workspaces/mos-hardware/target/mos-mega65-none/release/examples/11_parse-6e530e5be16e61ac.11_parse.64932adb-cgu.2.rcgu.o:(.debug_info)
   22fe5    22fe5       79     1         /workspaces/mos-hardware/target/mos-mega65-none/release/deps/libcompiler_builtins-d62120be29555e4d.rlib(compiler_builtins-d62120be29555e4d.compiler_builtins.feaf2b51-cgu.0.rcgu.o):(.debug_info)
   2305e    2305e     163c     1         /workspaces/mos-hardware/target/mos-mega65-none/release/deps/libcompiler_builtins-d62120be29555e4d.rlib(compiler_builtins-d62120be29555e4d.compiler_builtins.feaf2b51-cgu.2.rcgu.o):(.debug_info)
   2469a    2469a       9a     1         /workspaces/mos-hardware/target/mos-mega65-none/release/deps/libcompiler_builtins-d62120be29555e4d.rlib(compiler_builtins-d62120be29555e4d.compiler_builtins.feaf2b51-cgu.3.rcgu.o):(.debug_info)
   24734    24734       94     1         /workspaces/mos-hardware/target/mos-mega65-none/release/deps/libcompiler_builtins-d62120be29555e4d.rlib(compiler_builtins-d62120be29555e4d.compiler_builtins.feaf2b51-cgu.9.rcgu.o):(.debug_info)
   247c8    247c8      397     1         lto.tmp:(.debug_info)
       0        0      304     1 .debug_aranges
       0        0      294     1         /workspaces/mos-hardware/target/mos-mega65-none/release/examples/11_parse-6e530e5be16e61ac.11_parse.64932adb-cgu.2.rcgu.o:(.debug_aranges)
     294      294       14     1         /workspaces/mos-hardware/target/mos-mega65-none/release/deps/libcompiler_builtins-d62120be29555e4d.rlib(compiler_builtins-d62120be29555e4d.compiler_builtins.feaf2b51-cgu.0.rcgu.o):(.debug_aranges)
     2a8      2a8       34     1         /workspaces/mos-hardware/target/mos-mega65-none/release/deps/libcompiler_builtins-d62120be29555e4d.rlib(compiler_builtins-d62120be29555e4d.compiler_builtins.feaf2b51-cgu.2.rcgu.o):(.debug_aranges)
     2dc      2dc       14     1         /workspaces/mos-hardware/target/mos-mega65-none/release/deps/libcompiler_builtins-d62120be29555e4d.rlib(compiler_builtins-d62120be29555e4d.compiler_builtins.feaf2b51-cgu.3.rcgu.o):(.debug_aranges)
     2f0      2f0       14     1         /workspaces/mos-hardware/target/mos-mega65-none/release/deps/libcompiler_builtins-d62120be29555e4d.rlib(compiler_builtins-d62120be29555e4d.compiler_builtins.feaf2b51-cgu.9.rcgu.o):(.debug_aranges)
       0        0     26dc     1 .debug_ranges
       0        0     2610     1         /workspaces/mos-hardware/target/mos-mega65-none/release/examples/11_parse-6e530e5be16e61ac.11_parse.64932adb-cgu.2.rcgu.o:(.debug_ranges)
    2610     2610       cc     1         /workspaces/mos-hardware/target/mos-mega65-none/release/deps/libcompiler_builtins-d62120be29555e4d.rlib(compiler_builtins-d62120be29555e4d.compiler_builtins.feaf2b51-cgu.2.rcgu.o):(.debug_ranges)
       0        0    1bbf4     1 .debug_str
       0        0    1bbf4     1         <internal>:(.debug_str)
       0        0     b381     1 .debug_pubnames
       0        0     af49     1         /workspaces/mos-hardware/target/mos-mega65-none/release/examples/11_parse-6e530e5be16e61ac.11_parse.64932adb-cgu.2.rcgu.o:(.debug_pubnames)
    af49     af49       3b     1         /workspaces/mos-hardware/target/mos-mega65-none/release/deps/libcompiler_builtins-d62120be29555e4d.rlib(compiler_builtins-d62120be29555e4d.compiler_builtins.feaf2b51-cgu.0.rcgu.o):(.debug_pubnames)
    af84     af84      387     1         /workspaces/mos-hardware/target/mos-mega65-none/release/deps/libcompiler_builtins-d62120be29555e4d.rlib(compiler_builtins-d62120be29555e4d.compiler_builtins.feaf2b51-cgu.2.rcgu.o):(.debug_pubnames)
    b30b     b30b       3b     1         /workspaces/mos-hardware/target/mos-mega65-none/release/deps/libcompiler_builtins-d62120be29555e4d.rlib(compiler_builtins-d62120be29555e4d.compiler_builtins.feaf2b51-cgu.3.rcgu.o):(.debug_pubnames)
    b346     b346       3b     1         /workspaces/mos-hardware/target/mos-mega65-none/release/deps/libcompiler_builtins-d62120be29555e4d.rlib(compiler_builtins-d62120be29555e4d.compiler_builtins.feaf2b51-cgu.9.rcgu.o):(.debug_pubnames)
       0        0     cc84     1 .debug_pubtypes
       0        0     cb51     1         /workspaces/mos-hardware/target/mos-mega65-none/release/examples/11_parse-6e530e5be16e61ac.11_parse.64932adb-cgu.2.rcgu.o:(.debug_pubtypes)
    cb51     cb51       31     1         /workspaces/mos-hardware/target/mos-mega65-none/release/deps/libcompiler_builtins-d62120be29555e4d.rlib(compiler_builtins-d62120be29555e4d.compiler_builtins.feaf2b51-cgu.0.rcgu.o):(.debug_pubtypes)
    cb82     cb82       8c     1         /workspaces/mos-hardware/target/mos-mega65-none/release/deps/libcompiler_builtins-d62120be29555e4d.rlib(compiler_builtins-d62120be29555e4d.compiler_builtins.feaf2b51-cgu.2.rcgu.o):(.debug_pubtypes)
    cc0e     cc0e       3d     1         /workspaces/mos-hardware/target/mos-mega65-none/release/deps/libcompiler_builtins-d62120be29555e4d.rlib(compiler_builtins-d62120be29555e4d.compiler_builtins.feaf2b51-cgu.3.rcgu.o):(.debug_pubtypes)
    cc4b     cc4b       39     1         /workspaces/mos-hardware/target/mos-mega65-none/release/deps/libcompiler_builtins-d62120be29555e4d.rlib(compiler_builtins-d62120be29555e4d.compiler_builtins.feaf2b51-cgu.9.rcgu.o):(.debug_pubtypes)
       0        0     9ef3     1 .debug_line
       0        0     921d     1         /workspaces/mos-hardware/target/mos-mega65-none/release/examples/11_parse-6e530e5be16e61ac.11_parse.64932adb-cgu.2.rcgu.o:(.debug_line)
    921d     921d       41     1         /workspaces/mos-hardware/target/mos-mega65-none/release/deps/libcompiler_builtins-d62120be29555e4d.rlib(compiler_builtins-d62120be29555e4d.compiler_builtins.feaf2b51-cgu.0.rcgu.o):(.debug_line)
    925e     925e      9f4     1         /workspaces/mos-hardware/target/mos-mega65-none/release/deps/libcompiler_builtins-d62120be29555e4d.rlib(compiler_builtins-d62120be29555e4d.compiler_builtins.feaf2b51-cgu.2.rcgu.o):(.debug_line)
    9c52     9c52       41     1         /workspaces/mos-hardware/target/mos-mega65-none/release/deps/libcompiler_builtins-d62120be29555e4d.rlib(compiler_builtins-d62120be29555e4d.compiler_builtins.feaf2b51-cgu.3.rcgu.o):(.debug_line)
    9c93     9c93       41     1         /workspaces/mos-hardware/target/mos-mega65-none/release/deps/libcompiler_builtins-d62120be29555e4d.rlib(compiler_builtins-d62120be29555e4d.compiler_builtins.feaf2b51-cgu.9.rcgu.o):(.debug_line)
    9cd4     9cd4      21f     1         lto.tmp:(.debug_line)
       0        0       29     1 .comment
       0        0       29     1         <internal>:(.comment)
       0        0       19     1 .debug_rnglists
       0        0       19     1         lto.tmp:(.debug_rnglists)
       0        0      13c     1 .debug_str_offsets
       0        0      13c     1         lto.tmp:(.debug_str_offsets)
       0        0       18     1 .debug_addr
       0        0       18     1         lto.tmp:(.debug_addr)
       0        0       bf     1 .debug_line_str
       0        0       bf     1         <internal>:(.debug_line_str)
       0        0     10e0     4 .symtab
       0        0     10e0     4         <internal>:(.symtab)
       0        0      133     1 .shstrtab
       0        0      133     1         <internal>:(.shstrtab)
       0        0     1a9c     1 .strtab
       0        0     1a9c     1         <internal>:(.strtab)
